cnumpy.core.multiarray
_reconstruct
p0
(cnumpy
ndarray
p1
(I0
tp2
S'b'
p3
tp4
Rp5
(I1
(I300
I2
tp6
cnumpy
dtype
p7
(S'O8'
p8
I0
I1
tp9
Rp10
(I3
S'|'
p11
NNNI-1
I-1
I63
tp12
bI00
(lp13
(i__main__
PuffState
p14
(dp15
S'down_wind'
p16
I0
sS'y_var'
p17
I0
sS'y'
p18
cnumpy.core.multiarray
scalar
p19
(g7
(S'f8'
p20
I0
I1
tp21
Rp22
(I3
S'<'
p23
NNNI-1
I-1
I0
tp24
bS'\x00\x00\x00\x00\x00\x00\x18@'
p25
tp26
Rp27
sS'x'
p28
g19
(g22
S'\x00\x00\x00\x00\x00\x00\x18@'
p29
tp30
Rp31
sS'down_wind_var'
p32
I0
sS'x_var'
p33
I0
sba(i__main__
PuffState
p34
(dp35
g16
g0
(g1
(I0
tp36
g3
tp37
Rp38
(I1
(I1
tp39
g22
I00
S',p\x9b\x03?\xd4\xdc?'
p40
tp41
bsg17
I0
sg18
g0
(g1
(I0
tp42
g3
tp43
Rp44
(I1
(I1
tp45
g22
I00
S"\x9aA\x8b\xc6'y\x19@"
p46
tp47
bsg28
g0
(g1
(I0
tp48
g3
tp49
Rp50
(I1
(I1
tp51
g22
I00
S'z\x1fm#\x8e\t\x19@'
p52
tp53
bsg32
I0
sg33
I0
sbag34
a(i__main__
PuffState
p54
(dp55
g16
g0
(g1
(I0
tp56
g3
tp57
Rp58
(I1
(I1
tp59
g22
I00
S',p\x9b\x03?\xd4\xec?'
p60
tp61
bsg17
I0
sg18
g0
(g1
(I0
tp62
g3
tp63
Rp64
(I1
(I1
tp65
g22
I00
S'4\x83\x16\x8dO\xf2\x1a@'
p66
tp67
bsg28
g0
(g1
(I0
tp68
g3
tp69
Rp70
(I1
(I1
tp71
g22
I00
S'\xf4>\xdaF\x1c\x13\x1a@'
p72
tp73
bsg32
I0
sg33
I0
sbag54
a(i__main__
PuffState
p74
(dp75
g16
g0
(g1
(I0
tp76
g3
tp77
Rp78
(I1
(I1
tp79
g22
I00
S'!\x94\xb4B/\x9f\xf5?'
p80
tp81
bsg17
I0
sg18
g0
(g1
(I0
tp82
g3
tp83
Rp84
(I1
(I1
tp85
g22
I00
S'\xce\xc4\xa1Swk\x1c@'
p86
tp87
bsg28
g0
(g1
(I0
tp88
g3
tp89
Rp90
(I1
(I1
tp91
g22
I00
S'n^Gj\xaa\x1c\x1b@'
p92
tp93
bsg32
I0
sg33
I0
sbag74
a(i__main__
PuffState
p94
(dp95
g16
g0
(g1
(I0
tp96
g3
tp97
Rp98
(I1
(I1
tp99
g22
I00
S',p\x9b\x03?\xd4\xfc?'
p100
tp101
bsg17
I0
sg18
g0
(g1
(I0
tp102
g3
tp103
Rp104
(I1
(I1
tp105
g22
I00
S'h\x06-\x1a\x9f\xe4\x1d@'
p106
tp107
bsg28
g0
(g1
(I0
tp108
g3
tp109
Rp110
(I1
(I1
tp111
g22
I00
S'\xe8}\xb4\x8d8&\x1c@'
p112
tp113
bsg32
I0
sg33
I0
sbag94
a(i__main__
PuffState
p114
(dp115
g16
g0
(g1
(I0
tp116
g3
tp117
Rp118
(I1
(I1
tp119
g22
I00
S'\x1c&Ab\xa7\x04\x02@'
p120
tp121
bsg17
I0
sg18
g0
(g1
(I0
tp122
g3
tp123
Rp124
(I1
(I1
tp125
g22
I00
S'\x02H\xb8\xe0\xc6]\x1f@'
p126
tp127
bsg28
g0
(g1
(I0
tp128
g3
tp129
Rp130
(I1
(I1
tp131
g22
I00
S'b\x9d!\xb1\xc6/\x1d@'
p132
tp133
bsg32
I0
sg33
I0
sbag114
a(i__main__
PuffState
p134
(dp135
g16
g0
(g1
(I0
tp136
g3
tp137
Rp138
(I1
(I1
tp139
g22
I00
S'"\x94\xb4B/\x9f\x05@'
p140
tp141
bsg17
I0
sg18
g0
(g1
(I0
tp142
g3
tp143
Rp144
(I1
(I1
tp145
g22
I00
S'\xce\xc4\xa1Swk @'
p146
tp147
bsg28
g0
(g1
(I0
tp148
g3
tp149
Rp150
(I1
(I1
tp151
g22
I00
S'\xdc\xbc\x8e\xd4T9\x1e@'
p152
tp153
bsg32
I0
sg33
I0
sbag134
a(i__main__
PuffState
p154
(dp155
g16
g0
(g1
(I0
tp156
g3
tp157
Rp158
(I1
(I1
tp159
g22
I00
S'(\x02(#\xb79\t@'
p160
tp161
bsg17
I0
sg18
g0
(g1
(I0
tp162
g3
tp163
Rp164
(I1
(I1
tp165
g22
I00
S'\x9be\xe76\x0b(!@'
p166
tp167
bsg28
g0
(g1
(I0
tp168
g3
tp169
Rp170
(I1
(I1
tp171
g22
I00
S'V\xdc\xfb\xf7\xe2B\x1f@'
p172
tp173
bsg32
I0
sg33
I0
sbag154
a(i__main__
PuffState
p174
(dp175
g16
g0
(g1
(I0
tp176
g3
tp177
Rp178
(I1
(I1
tp179
g22
I00
S'.p\x9b\x03?\xd4\x0c@'
p180
tp181
bsg17
I0
sg18
g0
(g1
(I0
tp182
g3
tp183
Rp184
(I1
(I1
tp185
g22
I00
S'h\x06-\x1a\x9f\xe4!@'
p186
tp187
bsg28
g0
(g1
(I0
tp188
g3
tp189
Rp190
(I1
(I1
tp191
g22
I00
S'\xe8}\xb4\x8d8& @'
p192
tp193
bsg32
I0
sg33
I0
sbag174
a(i__main__
PuffState
p194
(dp195
g16
g0
(g1
(I0
tp196
g3
tp197
Rp198
(I1
(I1
tp199
g22
I00
S'\x1ao\x07rc7\x10@'
p200
tp201
bsg17
I0
sg18
g0
(g1
(I0
tp202
g3
tp203
Rp204
(I1
(I1
tp205
g22
I00
S'5\xa7r\xfd2\xa1"@'
p206
tp207
bsg28
g0
(g1
(I0
tp208
g3
tp209
Rp210
(I1
(I1
tp211
g22
I00
S'\xa5\rk\x9f\xff\xaa @'
p212
tp213
bsg32
I0
sg33
I0
sbag194
a(i__main__
PuffState
p214
(dp215
g16
g0
(g1
(I0
tp216
g3
tp217
Rp218
(I1
(I1
tp219
g22
I00
S'\x1d&Ab\xa7\x04\x12@'
p220
tp221
bsg17
I0
sg18
g0
(g1
(I0
tp222
g3
tp223
Rp224
(I1
(I1
tp225
g22
I00
S'\x02H\xb8\xe0\xc6]#@'
p226
tp227
bsg28
g0
(g1
(I0
tp228
g3
tp229
Rp230
(I1
(I1
tp231
g22
I00
S'b\x9d!\xb1\xc6/!@'
p232
tp233
bsg32
I0
sg33
I0
sbag214
a(i__main__
PuffState
p234
(dp235
g16
g0
(g1
(I0
tp236
g3
tp237
Rp238
(I1
(I1
tp239
g22
I00
S' \xddzR\xeb\xd1\x13@'
p240
tp241
bsg17
I0
sg18
g0
(g1
(I0
tp242
g3
tp243
Rp244
(I1
(I1
tp245
g22
I00
S'\xcf\xe8\xfd\xc3Z\x1a$@'
p246
tp247
bsg28
g0
(g1
(I0
tp248
g3
tp249
Rp250
(I1
(I1
tp251
g22
I00
S'\x1f-\xd8\xc2\x8d\xb4!@'
p252
tp253
bsg32
I0
sg33
I0
sbag234
a(i__main__
PuffState
p254
(dp255
g16
g0
(g1
(I0
tp256
g3
tp257
Rp258
(I1
(I1
tp259
g22
I00
S'#\x94\xb4B/\x9f\x15@'
p260
tp261
bsg17
I0
sg18
g0
(g1
(I0
tp262
g3
tp263
Rp264
(I1
(I1
tp265
g22
I00
S'\x9c\x89C\xa7\xee\xd6$@'
p266
tp267
bsg28
g0
(g1
(I0
tp268
g3
tp269
Rp270
(I1
(I1
tp271
g22
I00
S'\xdc\xbc\x8e\xd4T9"@'
p272
tp273
bsg32
I0
sg33
I0
sbag254
a(i__main__
PuffState
p274
(dp275
g16
g0
(g1
(I0
tp276
g3
tp277
Rp278
(I1
(I1
tp279
g22
I00
S'&K\xee2sl\x17@'
p280
tp281
bsg17
I0
sg18
g0
(g1
(I0
tp282
g3
tp283
Rp284
(I1
(I1
tp285
g22
I00
S'i*\x89\x8a\x82\x93%@'
p286
tp287
bsg28
g0
(g1
(I0
tp288
g3
tp289
Rp290
(I1
(I1
tp291
g22
I00
S'\x99LE\xe6\x1b\xbe"@'
p292
tp293
bsg32
I0
sg33
I0
sbag274
a(i__main__
PuffState
p294
(dp295
g16
g0
(g1
(I0
tp296
g3
tp297
Rp298
(I1
(I1
tp299
g22
I00
S')\x02(#\xb79\x19@'
p300
tp301
bsg17
I0
sg18
g0
(g1
(I0
tp302
g3
tp303
Rp304
(I1
(I1
tp305
g22
I00
S'6\xcb\xcem\x16P&@'
p306
tp307
bsg28
g0
(g1
(I0
tp308
g3
tp309
Rp310
(I1
(I1
tp311
g22
I00
S'V\xdc\xfb\xf7\xe2B#@'
p312
tp313
bsg32
I0
sg33
I0
sbag294
a(i__main__
PuffState
p314
(dp315
g16
g0
(g1
(I0
tp316
g3
tp317
Rp318
(I1
(I1
tp319
g22
I00
S',\xb9a\x13\xfb\x06\x1b@'
p320
tp321
bsg17
I0
sg18
g0
(g1
(I0
tp322
g3
tp323
Rp324
(I1
(I1
tp325
g22
I00
S"\x03l\x14Q\xaa\x0c'@"
p326
tp327
bsg28
g0
(g1
(I0
tp328
g3
tp329
Rp330
(I1
(I1
tp331
g22
I00
S'\x13l\xb2\t\xaa\xc7#@'
p332
tp333
bsg32
I0
sg33
I0
sbag314
a(i__main__
PuffState
p334
(dp335
g16
g0
(g1
(I0
tp336
g3
tp337
Rp338
(I1
(I1
tp339
g22
I00
S'/p\x9b\x03?\xd4\x1c@'
p340
tp341
bsg17
I0
sg18
g0
(g1
(I0
tp342
g3
tp343
Rp344
(I1
(I1
tp345
g22
I00
S"\xd0\x0cZ4>\xc9'@"
p346
tp347
bsg28
g0
(g1
(I0
tp348
g3
tp349
Rp350
(I1
(I1
tp351
g22
I00
S'\xd0\xfbh\x1bqL$@'
p352
tp353
bsg32
I0
sg33
I0
sbag334
a(i__main__
PuffState
p354
(dp355
g16
g0
(g1
(I0
tp356
g3
tp357
Rp358
(I1
(I1
tp359
g22
I00
S"2'\xd5\xf3\x82\xa1\x1e@"
p360
tp361
bsg17
I0
sg18
g0
(g1
(I0
tp362
g3
tp363
Rp364
(I1
(I1
tp365
g22
I00
S'\x9d\xad\x9f\x17\xd2\x85(@'
p366
tp367
bsg28
g0
(g1
(I0
tp368
g3
tp369
Rp370
(I1
(I1
tp371
g22
I00
S'\x8d\x8b\x1f-8\xd1$@'
p372
tp373
bsg32
I0
sg33
I0
sbag354
a(i__main__
PuffState
p374
(dp375
g16
g0
(g1
(I0
tp376
g3
tp377
Rp378
(I1
(I1
tp379
g22
I00
S'\x1ao\x07rc7 @'
p380
tp381
bsg17
I0
sg18
g0
(g1
(I0
tp382
g3
tp383
Rp384
(I1
(I1
tp385
g22
I00
S'jN\xe5\xfaeB)@'
p386
tp387
bsg28
g0
(g1
(I0
tp388
g3
tp389
Rp390
(I1
(I1
tp391
g22
I00
S'J\x1b\xd6>\xffU%@'
p392
tp393
bsg32
I0
sg33
I0
sbag374
a(i__main__
PuffState
p394
(dp395
g16
g0
(g1
(I0
tp396
g3
tp397
Rp398
(I1
(I1
tp399
g22
I00
S'\x9bJ$j\x05\x1e!@'
p400
tp401
bsg17
I0
sg18
g0
(g1
(I0
tp402
g3
tp403
Rp404
(I1
(I1
tp405
g22
I00
S'7\xef*\xde\xf9\xfe)@'
p406
tp407
bsg28
g0
(g1
(I0
tp408
g3
tp409
Rp410
(I1
(I1
tp411
g22
I00
S'\x07\xab\x8cP\xc6\xda%@'
p412
tp413
bsg32
I0
sg33
I0
sbag394
a(i__main__
PuffState
p414
(dp415
g16
g0
(g1
(I0
tp416
g3
tp417
Rp418
(I1
(I1
tp419
g22
I00
S'\x1c&Ab\xa7\x04"@'
p420
tp421
bsg17
I0
sg18
g0
(g1
(I0
tp422
g3
tp423
Rp424
(I1
(I1
tp425
g22
I00
S'\x04\x90p\xc1\x8d\xbb*@'
p426
tp427
bsg28
g0
(g1
(I0
tp428
g3
tp429
Rp430
(I1
(I1
tp431
g22
I00
S'\xc4:Cb\x8d_&@'
p432
tp433
bsg32
I0
sg33
I0
sba(i__main__
PuffState
p434
(dp435
g16
I0
sg17
I0
sg18
g19
(g22
S'\x00\x00\x00\x00\x00\x00\x18@'
p436
tp437
Rp438
sg28
g19
(g22
S'\x00\x00\x00\x00\x00\x00\x18@'
p439
tp440
Rp441
sg32
I0
sg33
I0
sba(i__main__
PuffState
p442
(dp443
g16
g0
(g1
(I0
tp444
g3
tp445
Rp446
(I1
(I1
tp447
g22
I00
S'n\x0eK\xde\xdeu\xdd?'
p448
tp449
bsg17
I0
sg18
g0
(g1
(I0
tp450
g3
tp451
Rp452
(I1
(I1
tp453
g22
I00
S'>\xfcb\x8a\x93-\x19@'
p454
tp455
bsg28
g0
(g1
(I0
tp456
g3
tp457
Rp458
(I1
(I1
tp459
g22
I00
S'\xaa\xbf\xd9\xbdDj\x19@'
p460
tp461
bsg32
I0
sg33
I0
sbag442
a(i__main__
PuffState
p462
(dp463
g16
g0
(g1
(I0
tp464
g3
tp465
Rp466
(I1
(I1
tp467
g22
I00
S'n\x0eK\xde\xdeu\xed?'
p468
tp469
bsg17
I0
sg18
g0
(g1
(I0
tp470
g3
tp471
Rp472
(I1
(I1
tp473
g22
I00
S"|\xf8\xc5\x14'[\x1a@"
p474
tp475
bsg28
g0
(g1
(I0
tp476
g3
tp477
Rp478
(I1
(I1
tp479
g22
I00
S'T\x7f\xb3{\x89\xd4\x1a@'
p480
tp481
bsg32
I0
sg33
I0
sbag462
a(i__main__
PuffState
p482
(dp483
g16
g0
(g1
(I0
tp484
g3
tp485
Rp486
(I1
(I1
tp487
g22
I00
S'\xd2J\xb8&g\x18\xf6?'
p488
tp489
bsg17
I0
sg18
g0
(g1
(I0
tp490
g3
tp491
Rp492
(I1
(I1
tp493
g22
I00
S'\xba\xf4(\x9f\xba\x88\x1b@'
p494
tp495
bsg28
g0
(g1
(I0
tp496
g3
tp497
Rp498
(I1
(I1
tp499
g22
I00
S'\xfe>\x8d9\xce>\x1c@'
p500
tp501
bsg32
I0
sg33
I0
sbag482
a(i__main__
PuffState
p502
(dp503
g16
g0
(g1
(I0
tp504
g3
tp505
Rp506
(I1
(I1
tp507
g22
I00
S'n\x0eK\xde\xdeu\xfd?'
p508
tp509
bsg17
I0
sg18
g0
(g1
(I0
tp510
g3
tp511
Rp512
(I1
(I1
tp513
g22
I00
S'\xf8\xf0\x8b)N\xb6\x1c@'
p514
tp515
bsg28
g0
(g1
(I0
tp516
g3
tp517
Rp518
(I1
(I1
tp519
g22
I00
S'\xa8\xfef\xf7\x12\xa9\x1d@'
p520
tp521
bsg32
I0
sg33
I0
sbag502
a(i__main__
PuffState
p522
(dp523
g16
g0
(g1
(I0
tp524
g3
tp525
Rp526
(I1
(I1
tp527
g22
I00
S'\x05\xe9\xeeJ\xabi\x02@'
p528
tp529
bsg17
I0
sg18
g0
(g1
(I0
tp530
g3
tp531
Rp532
(I1
(I1
tp533
g22
I00
S'6\xed\xee\xb3\xe1\xe3\x1d@'
p534
tp535
bsg28
g0
(g1
(I0
tp536
g3
tp537
Rp538
(I1
(I1
tp539
g22
I00
S'R\xbe@\xb5W\x13\x1f@'
p540
tp541
bsg32
I0
sg33
I0
sbag522
a(i__main__
PuffState
p542
(dp543
g16
g0
(g1
(I0
tp544
g3
tp545
Rp546
(I1
(I1
tp547
g22
I00
S'\xd3J\xb8&g\x18\x06@'
p548
tp549
bsg17
I0
sg18
g0
(g1
(I0
tp550
g3
tp551
Rp552
(I1
(I1
tp553
g22
I00
S't\xe9Q>u\x11\x1f@'
p554
tp555
bsg28
g0
(g1
(I0
tp556
g3
tp557
Rp558
(I1
(I1
tp559
g22
I00
S'\xfe>\x8d9\xce> @'
p560
tp561
bsg32
I0
sg33
I0
sbag542
a(i__main__
PuffState
p562
(dp563
g16
g0
(g1
(I0
tp564
g3
tp565
Rp566
(I1
(I1
tp567
g22
I00
S'\xa1\xac\x81\x02#\xc7\t@'
p568
tp569
bsg17
I0
sg18
g0
(g1
(I0
tp570
g3
tp571
Rp572
(I1
(I1
tp573
g22
I00
S'\xd9rZd\x84\x1f @'
p574
tp575
bsg28
g0
(g1
(I0
tp576
g3
tp577
Rp578
(I1
(I1
tp579
g22
I00
S'\xd3\x1ez\x98\xf0\xf3 @'
p580
tp581
bsg32
I0
sg33
I0
sbag562
a(i__main__
PuffState
p582
(dp583
g16
g0
(g1
(I0
tp584
g3
tp585
Rp586
(I1
(I1
tp587
g22
I00
S'o\x0eK\xde\xdeu\r@'
p588
tp589
bsg17
I0
sg18
g0
(g1
(I0
tp590
g3
tp591
Rp592
(I1
(I1
tp593
g22
I00
S'\xf8\xf0\x8b)N\xb6 @'
p594
tp595
bsg28
g0
(g1
(I0
tp596
g3
tp597
Rp598
(I1
(I1
tp599
g22
I00
S'\xa8\xfef\xf7\x12\xa9!@'
p600
tp601
bsg32
I0
sg33
I0
sbag582
a(i__main__
PuffState
p602
(dp603
g16
g0
(g1
(I0
tp604
g3
tp605
Rp606
(I1
(I1
tp607
g22
I00
S'\x1e8\n]M\x92\x10@'
p608
tp609
bsg17
I0
sg18
g0
(g1
(I0
tp610
g3
tp611
Rp612
(I1
(I1
tp613
g22
I00
S'\x17o\xbd\xee\x17M!@'
p614
tp615
bsg28
g0
(g1
(I0
tp616
g3
tp617
Rp618
(I1
(I1
tp619
g22
I00
S'}\xdeSV5^"@'
p620
tp621
bsg32
I0
sg33
I0
sbag602
a(i__main__
PuffState
p622
(dp623
g16
g0
(g1
(I0
tp624
g3
tp625
Rp626
(I1
(I1
tp627
g22
I00
S'\x05\xe9\xeeJ\xabi\x12@'
p628
tp629
bsg17
I0
sg18
g0
(g1
(I0
tp630
g3
tp631
Rp632
(I1
(I1
tp633
g22
I00
S'6\xed\xee\xb3\xe1\xe3!@'
p634
tp635
bsg28
g0
(g1
(I0
tp636
g3
tp637
Rp638
(I1
(I1
tp639
g22
I00
S'R\xbe@\xb5W\x13#@'
p640
tp641
bsg32
I0
sg33
I0
sbag622
a(i__main__
PuffState
p642
(dp643
g16
g0
(g1
(I0
tp644
g3
tp645
Rp646
(I1
(I1
tp647
g22
I00
S'\xec\x99\xd38\tA\x14@'
p648
tp649
bsg17
I0
sg18
g0
(g1
(I0
tp650
g3
tp651
Rp652
(I1
(I1
tp653
g22
I00
S'Uk y\xabz"@'
p654
tp655
bsg28
g0
(g1
(I0
tp656
g3
tp657
Rp658
(I1
(I1
tp659
g22
I00
S"'\x9e-\x14z\xc8#@"
p660
tp661
bsg32
I0
sg33
I0
sbag642
a(i__main__
PuffState
p662
(dp663
g16
g0
(g1
(I0
tp664
g3
tp665
Rp666
(I1
(I1
tp667
g22
I00
S'\xd3J\xb8&g\x18\x16@'
p668
tp669
bsg17
I0
sg18
g0
(g1
(I0
tp670
g3
tp671
Rp672
(I1
(I1
tp673
g22
I00
S't\xe9Q>u\x11#@'
p674
tp675
bsg28
g0
(g1
(I0
tp676
g3
tp677
Rp678
(I1
(I1
tp679
g22
I00
S'\xfc}\x1as\x9c}$@'
p680
tp681
bsg32
I0
sg33
I0
sbag662
a(i__main__
PuffState
p682
(dp683
g16
g0
(g1
(I0
tp684
g3
tp685
Rp686
(I1
(I1
tp687
g22
I00
S'\xba\xfb\x9c\x14\xc5\xef\x17@'
p688
tp689
bsg17
I0
sg18
g0
(g1
(I0
tp690
g3
tp691
Rp692
(I1
(I1
tp693
g22
I00
S'\x93g\x83\x03?\xa8#@'
p694
tp695
bsg28
g0
(g1
(I0
tp696
g3
tp697
Rp698
(I1
(I1
tp699
g22
I00
S'\xd1]\x07\xd2\xbe2%@'
p700
tp701
bsg32
I0
sg33
I0
sbag682
a(i__main__
PuffState
p702
(dp703
g16
g0
(g1
(I0
tp704
g3
tp705
Rp706
(I1
(I1
tp707
g22
I00
S'\xa1\xac\x81\x02#\xc7\x19@'
p708
tp709
bsg17
I0
sg18
g0
(g1
(I0
tp710
g3
tp711
Rp712
(I1
(I1
tp713
g22
I00
S'\xb2\xe5\xb4\xc8\x08?$@'
p714
tp715
bsg28
g0
(g1
(I0
tp716
g3
tp717
Rp718
(I1
(I1
tp719
g22
I00
S'\xa6=\xf40\xe1\xe7%@'
p720
tp721
bsg32
I0
sg33
I0
sbag702
a(i__main__
PuffState
p722
(dp723
g16
g0
(g1
(I0
tp724
g3
tp725
Rp726
(I1
(I1
tp727
g22
I00
S'\x88]f\xf0\x80\x9e\x1b@'
p728
tp729
bsg17
I0
sg18
g0
(g1
(I0
tp730
g3
tp731
Rp732
(I1
(I1
tp733
g22
I00
S'\xd1c\xe6\x8d\xd2\xd5$@'
p734
tp735
bsg28
g0
(g1
(I0
tp736
g3
tp737
Rp738
(I1
(I1
tp739
g22
I00
S'{\x1d\xe1\x8f\x03\x9d&@'
p740
tp741
bsg32
I0
sg33
I0
sbag722
a(i__main__
PuffState
p742
(dp743
g16
g0
(g1
(I0
tp744
g3
tp745
Rp746
(I1
(I1
tp747
g22
I00
S'o\x0eK\xde\xdeu\x1d@'
p748
tp749
bsg17
I0
sg18
g0
(g1
(I0
tp750
g3
tp751
Rp752
(I1
(I1
tp753
g22
I00
S'\xf0\xe1\x17S\x9cl%@'
p754
tp755
bsg28
g0
(g1
(I0
tp756
g3
tp757
Rp758
(I1
(I1
tp759
g22
I00
S"P\xfd\xcd\xee%R'@"
p760
tp761
bsg32
I0
sg33
I0
sbag742
a(i__main__
PuffState
p762
(dp763
g16
g0
(g1
(I0
tp764
g3
tp765
Rp766
(I1
(I1
tp767
g22
I00
S'V\xbf/\xcc<M\x1f@'
p768
tp769
bsg17
I0
sg18
g0
(g1
(I0
tp770
g3
tp771
Rp772
(I1
(I1
tp773
g22
I00
S'\x0f`I\x18f\x03&@'
p774
tp775
bsg28
g0
(g1
(I0
tp776
g3
tp777
Rp778
(I1
(I1
tp779
g22
I00
S'%\xdd\xbaMH\x07(@'
p780
tp781
bsg32
I0
sg33
I0
sbag762
a(i__main__
PuffState
p782
(dp783
g16
g0
(g1
(I0
tp784
g3
tp785
Rp786
(I1
(I1
tp787
g22
I00
S'\x1e8\n]M\x92 @'
p788
tp789
bsg17
I0
sg18
g0
(g1
(I0
tp790
g3
tp791
Rp792
(I1
(I1
tp793
g22
I00
S'.\xdez\xdd/\x9a&@'
p794
tp795
bsg28
g0
(g1
(I0
tp796
g3
tp797
Rp798
(I1
(I1
tp799
g22
I00
S'\xfa\xbc\xa7\xacj\xbc(@'
p800
tp801
bsg32
I0
sg33
I0
sbag782
a(i__main__
PuffState
p802
(dp803
g16
g0
(g1
(I0
tp804
g3
tp805
Rp806
(I1
(I1
tp807
g22
I00
S'\x91\x90\xfcS\xfc}!@'
p808
tp809
bsg17
I0
sg18
g0
(g1
(I0
tp810
g3
tp811
Rp812
(I1
(I1
tp813
g22
I00
S"M\\\xac\xa2\xf90'@"
p814
tp815
bsg28
g0
(g1
(I0
tp816
g3
tp817
Rp818
(I1
(I1
tp819
g22
I00
S'\xcf\x9c\x94\x0b\x8dq)@'
p820
tp821
bsg32
I0
sg33
I0
sbag802
a(i__main__
PuffState
p822
(dp823
g16
g0
(g1
(I0
tp824
g3
tp825
Rp826
(I1
(I1
tp827
g22
I00
S'\x04\xe9\xeeJ\xabi"@'
p828
tp829
bsg17
I0
sg18
g0
(g1
(I0
tp830
g3
tp831
Rp832
(I1
(I1
tp833
g22
I00
S"l\xda\xddg\xc3\xc7'@"
p834
tp835
bsg28
g0
(g1
(I0
tp836
g3
tp837
Rp838
(I1
(I1
tp839
g22
I00
S'\xa4|\x81j\xaf&*@'
p840
tp841
bsg32
I0
sg33
I0
sba(i__main__
PuffState
p842
(dp843
g16
I0
sg17
I0
sg18
g19
(g22
S'\x00\x00\x00\x00\x00\x00\x18@'
p844
tp845
Rp846
sg28
g19
(g22
S'\x00\x00\x00\x00\x00\x00\x18@'
p847
tp848
Rp849
sg32
I0
sg33
I0
sba(i__main__
PuffState
p850
(dp851
g16
g0
(g1
(I0
tp852
g3
tp853
Rp854
(I1
(I1
tp855
g22
I00
S'Y[\x00\xea"\xe0\xe0?'
p856
tp857
bsg17
I0
sg18
g0
(g1
(I0
tp858
g3
tp859
Rp860
(I1
(I1
tp861
g22
I00
S'v\x8d}\xe426\x19@'
p862
tp863
bsg28
g0
(g1
(I0
tp864
g3
tp865
Rp866
(I1
(I1
tp867
g22
I00
S'\x83m\xcc\x02\t\xba\x19@'
p868
tp869
bsg32
I0
sg33
I0
sbag850
a(i__main__
PuffState
p870
(dp871
g16
g0
(g1
(I0
tp872
g3
tp873
Rp874
(I1
(I1
tp875
g22
I00
S'Y[\x00\xea"\xe0\xf0?'
p876
tp877
bsg17
I0
sg18
g0
(g1
(I0
tp878
g3
tp879
Rp880
(I1
(I1
tp881
g22
I00
S'\xec\x1a\xfb\xc8el\x1a@'
p882
tp883
bsg28
g0
(g1
(I0
tp884
g3
tp885
Rp886
(I1
(I1
tp887
g22
I00
S'\x06\xdb\x98\x05\x12t\x1b@'
p888
tp889
bsg32
I0
sg33
I0
sbag870
a(i__main__
PuffState
p890
(dp891
g16
g0
(g1
(I0
tp892
g3
tp893
Rp894
(I1
(I1
tp895
g22
I00
S'\x06\x89\x00_4P\xf9?'
p896
tp897
bsg17
I0
sg18
g0
(g1
(I0
tp898
g3
tp899
Rp900
(I1
(I1
tp901
g22
I00
S'b\xa8x\xad\x98\xa2\x1b@'
p902
tp903
bsg28
g0
(g1
(I0
tp904
g3
tp905
Rp906
(I1
(I1
tp907
g22
I00
S'\x89He\x08\x1b.\x1d@'
p908
tp909
bsg32
I0
sg33
I0
sbag890
a(i__main__
PuffState
p910
(dp911
g16
g0
(g1
(I0
tp912
g3
tp913
Rp914
(I1
(I1
tp915
g22
I00
S'Y[\x00\xea"\xe0\x00@'
p916
tp917
bsg17
I0
sg18
g0
(g1
(I0
tp918
g3
tp919
Rp920
(I1
(I1
tp921
g22
I00
S'\xd85\xf6\x91\xcb\xd8\x1c@'
p922
tp923
bsg28
g0
(g1
(I0
tp924
g3
tp925
Rp926
(I1
(I1
tp927
g22
I00
S'\x0c\xb61\x0b$\xe8\x1e@'
p928
tp929
bsg32
I0
sg33
I0
sbag910
a(i__main__
PuffState
p930
(dp931
g16
g0
(g1
(I0
tp932
g3
tp933
Rp934
(I1
(I1
tp935
g22
I00
S'/r\x80\xa4+\x18\x05@'
p936
tp937
bsg17
I0
sg18
g0
(g1
(I0
tp938
g3
tp939
Rp940
(I1
(I1
tp941
g22
I00
S'N\xc3sv\xfe\x0e\x1e@'
p942
tp943
bsg28
g0
(g1
(I0
tp944
g3
tp945
Rp946
(I1
(I1
tp947
g22
I00
S'\xc7\x11\xff\x86\x16Q @'
p948
tp949
bsg32
I0
sg33
I0
sbag930
a(i__main__
PuffState
p950
(dp951
g16
g0
(g1
(I0
tp952
g3
tp953
Rp954
(I1
(I1
tp955
g22
I00
S'\x05\x89\x00_4P\t@'
p956
tp957
bsg17
I0
sg18
g0
(g1
(I0
tp958
g3
tp959
Rp960
(I1
(I1
tp961
g22
I00
S'\xc4P\xf1Z1E\x1f@'
p962
tp963
bsg28
g0
(g1
(I0
tp964
g3
tp965
Rp966
(I1
(I1
tp967
g22
I00
S'\x88He\x08\x1b.!@'
p968
tp969
bsg32
I0
sg33
I0
sbag950
a(i__main__
PuffState
p970
(dp971
g16
g0
(g1
(I0
tp972
g3
tp973
Rp974
(I1
(I1
tp975
g22
I00
S'\xdb\x9f\x80\x19=\x88\r@'
p976
tp977
bsg17
I0
sg18
g0
(g1
(I0
tp978
g3
tp979
Rp980
(I1
(I1
tp981
g22
I00
S'\x1do\xb7\x1f\xb2= @'
p982
tp983
bsg28
g0
(g1
(I0
tp984
g3
tp985
Rp986
(I1
(I1
tp987
g22
I00
S'I\x7f\xcb\x89\x1f\x0b"@'
p988
tp989
bsg32
I0
sg33
I0
sbag970
a(i__main__
PuffState
p990
(dp991
g16
g0
(g1
(I0
tp992
g3
tp993
Rp994
(I1
(I1
tp995
g22
I00
S'Y[\x00\xea"\xe0\x10@'
p996
tp997
bsg17
I0
sg18
g0
(g1
(I0
tp998
g3
tp999
Rp1000
(I1
(I1
tp1001
g22
I00
S'\xd85\xf6\x91\xcb\xd8 @'
p1002
tp1003
bsg28
g0
(g1
(I0
tp1004
g3
tp1005
Rp1006
(I1
(I1
tp1007
g22
I00
S'\n\xb61\x0b$\xe8"@'
p1008
tp1009
bsg32
I0
sg33
I0
sbag990
a(i__main__
PuffState
p1010
(dp1011
g16
g0
(g1
(I0
tp1012
g3
tp1013
Rp1014
(I1
(I1
tp1015
g22
I00
S"\xc4f@G'\xfc\x12@"
p1016
tp1017
bsg17
I0
sg18
g0
(g1
(I0
tp1018
g3
tp1019
Rp1020
(I1
(I1
tp1021
g22
I00
S'\x93\xfc4\x04\xe5s!@'
p1022
tp1023
bsg28
g0
(g1
(I0
tp1024
g3
tp1025
Rp1026
(I1
(I1
tp1027
g22
I00
S'\xcb\xec\x97\x8c(\xc5#@'
p1028
tp1029
bsg32
I0
sg33
I0
sbag1010
a(i__main__
PuffState
p1030
(dp1031
g16
g0
(g1
(I0
tp1032
g3
tp1033
Rp1034
(I1
(I1
tp1035
g22
I00
S'/r\x80\xa4+\x18\x15@'
p1036
tp1037
bsg17
I0
sg18
g0
(g1
(I0
tp1038
g3
tp1039
Rp1040
(I1
(I1
tp1041
g22
I00
S'N\xc3sv\xfe\x0e"@'
p1042
tp1043
bsg28
g0
(g1
(I0
tp1044
g3
tp1045
Rp1046
(I1
(I1
tp1047
g22
I00
S'\x8c#\xfe\r-\xa2$@'
p1048
tp1049
bsg32
I0
sg33
I0
sbag1030
a(i__main__
PuffState
p1050
(dp1051
g16
g0
(g1
(I0
tp1052
g3
tp1053
Rp1054
(I1
(I1
tp1055
g22
I00
S'\x9a}\xc0\x0104\x17@'
p1056
tp1057
bsg17
I0
sg18
g0
(g1
(I0
tp1058
g3
tp1059
Rp1060
(I1
(I1
tp1061
g22
I00
S'\t\x8a\xb2\xe8\x17\xaa"@'
p1062
tp1063
bsg28
g0
(g1
(I0
tp1064
g3
tp1065
Rp1066
(I1
(I1
tp1067
g22
I00
S'MZd\x8f1\x7f%@'
p1068
tp1069
bsg32
I0
sg33
I0
sbag1050
a(i__main__
PuffState
p1070
(dp1071
g16
g0
(g1
(I0
tp1072
g3
tp1073
Rp1074
(I1
(I1
tp1075
g22
I00
S'\x05\x89\x00_4P\x19@'
p1076
tp1077
bsg17
I0
sg18
g0
(g1
(I0
tp1078
g3
tp1079
Rp1080
(I1
(I1
tp1081
g22
I00
S'\xc4P\xf1Z1E#@'
p1082
tp1083
bsg28
g0
(g1
(I0
tp1084
g3
tp1085
Rp1086
(I1
(I1
tp1087
g22
I00
S'\x0e\x91\xca\x106\\&@'
p1088
tp1089
bsg32
I0
sg33
I0
sbag1070
a(i__main__
PuffState
p1090
(dp1091
g16
g0
(g1
(I0
tp1092
g3
tp1093
Rp1094
(I1
(I1
tp1095
g22
I00
S'p\x94@\xbc8l\x1b@'
p1096
tp1097
bsg17
I0
sg18
g0
(g1
(I0
tp1098
g3
tp1099
Rp1100
(I1
(I1
tp1101
g22
I00
S'\x7f\x170\xcdJ\xe0#@'
p1102
tp1103
bsg28
g0
(g1
(I0
tp1104
g3
tp1105
Rp1106
(I1
(I1
tp1107
g22
I00
S"\xcf\xc70\x92:9'@"
p1108
tp1109
bsg32
I0
sg33
I0
sbag1090
a(i__main__
PuffState
p1110
(dp1111
g16
g0
(g1
(I0
tp1112
g3
tp1113
Rp1114
(I1
(I1
tp1115
g22
I00
S'\xdb\x9f\x80\x19=\x88\x1d@'
p1116
tp1117
bsg17
I0
sg18
g0
(g1
(I0
tp1118
g3
tp1119
Rp1120
(I1
(I1
tp1121
g22
I00
S':\xden?d{$@'
p1122
tp1123
bsg28
g0
(g1
(I0
tp1124
g3
tp1125
Rp1126
(I1
(I1
tp1127
g22
I00
S'\x90\xfe\x96\x13?\x16(@'
p1128
tp1129
bsg32
I0
sg33
I0
sbag1110
a(i__main__
PuffState
p1130
(dp1131
g16
g0
(g1
(I0
tp1132
g3
tp1133
Rp1134
(I1
(I1
tp1135
g22
I00
S'F\xab\xc0vA\xa4\x1f@'
p1136
tp1137
bsg17
I0
sg18
g0
(g1
(I0
tp1138
g3
tp1139
Rp1140
(I1
(I1
tp1141
g22
I00
S'\xf5\xa4\xad\xb1}\x16%@'
p1142
tp1143
bsg28
g0
(g1
(I0
tp1144
g3
tp1145
Rp1146
(I1
(I1
tp1147
g22
I00
S'Q5\xfd\x94C\xf3(@'
p1148
tp1149
bsg32
I0
sg33
I0
sbag1130
a(i__main__
PuffState
p1150
(dp1151
g16
g0
(g1
(I0
tp1152
g3
tp1153
Rp1154
(I1
(I1
tp1155
g22
I00
S'Y[\x00\xea"\xe0 @'
p1156
tp1157
bsg17
I0
sg18
g0
(g1
(I0
tp1158
g3
tp1159
Rp1160
(I1
(I1
tp1161
g22
I00
S'\xb0k\xec#\x97\xb1%@'
p1162
tp1163
bsg28
g0
(g1
(I0
tp1164
g3
tp1165
Rp1166
(I1
(I1
tp1167
g22
I00
S'\x12lc\x16H\xd0)@'
p1168
tp1169
bsg32
I0
sg33
I0
sbag1150
a(i__main__
PuffState
p1170
(dp1171
g16
g0
(g1
(I0
tp1172
g3
tp1173
Rp1174
(I1
(I1
tp1175
g22
I00
S'\x0fa\xa0\x18%\xee!@'
p1176
tp1177
bsg17
I0
sg18
g0
(g1
(I0
tp1178
g3
tp1179
Rp1180
(I1
(I1
tp1181
g22
I00
S'k2+\x96\xb0L&@'
p1182
tp1183
bsg28
g0
(g1
(I0
tp1184
g3
tp1185
Rp1186
(I1
(I1
tp1187
g22
I00
S'\xd3\xa2\xc9\x97L\xad*@'
p1188
tp1189
bsg32
I0
sg33
I0
sbag1170
a(i__main__
PuffState
p1190
(dp1191
g16
g0
(g1
(I0
tp1192
g3
tp1193
Rp1194
(I1
(I1
tp1195
g22
I00
S'\xc5f@G\'\xfc"@'
p1196
tp1197
bsg17
I0
sg18
g0
(g1
(I0
tp1198
g3
tp1199
Rp1200
(I1
(I1
tp1201
g22
I00
S'&\xf9i\x08\xca\xe7&@'
p1202
tp1203
bsg28
g0
(g1
(I0
tp1204
g3
tp1205
Rp1206
(I1
(I1
tp1207
g22
I00
S'\x94\xd9/\x19Q\x8a+@'
p1208
tp1209
bsg32
I0
sg33
I0
sbag1190
a(i__main__
PuffState
p1210
(dp1211
g16
g0
(g1
(I0
tp1212
g3
tp1213
Rp1214
(I1
(I1
tp1215
g22
I00
S'{l\xe0u)\n$@'
p1216
tp1217
bsg17
I0
sg18
g0
(g1
(I0
tp1218
g3
tp1219
Rp1220
(I1
(I1
tp1221
g22
I00
S"\xe1\xbf\xa8z\xe3\x82'@"
p1222
tp1223
bsg28
g0
(g1
(I0
tp1224
g3
tp1225
Rp1226
(I1
(I1
tp1227
g22
I00
S'U\x10\x96\x9aUg,@'
p1228
tp1229
bsg32
I0
sg33
I0
sbag1210
a(i__main__
PuffState
p1230
(dp1231
g16
g0
(g1
(I0
tp1232
g3
tp1233
Rp1234
(I1
(I1
tp1235
g22
I00
S'1r\x80\xa4+\x18%@'
p1236
tp1237
bsg17
I0
sg18
g0
(g1
(I0
tp1238
g3
tp1239
Rp1240
(I1
(I1
tp1241
g22
I00
S'\x9c\x86\xe7\xec\xfc\x1d(@'
p1242
tp1243
bsg28
g0
(g1
(I0
tp1244
g3
tp1245
Rp1246
(I1
(I1
tp1247
g22
I00
S'\x16G\xfc\x1bZD-@'
p1248
tp1249
bsg32
I0
sg33
I0
sba(i__main__
PuffState
p1250
(dp1251
g16
I0
sg17
I0
sg18
g19
(g22
S'\x00\x00\x00\x00\x00\x00\x18@'
p1252
tp1253
Rp1254
sg28
g19
(g22
S'\x00\x00\x00\x00\x00\x00\x18@'
p1255
tp1256
Rp1257
sg32
I0
sg33
I0
sba(i__main__
PuffState
p1258
(dp1259
g16
g0
(g1
(I0
tp1260
g3
tp1261
Rp1262
(I1
(I1
tp1263
g22
I00
S'\xe8t\x1c\x88m\xc2\xe2?'
p1264
tp1265
bsg17
I0
sg18
g0
(g1
(I0
tp1266
g3
tp1267
Rp1268
(I1
(I1
tp1269
g22
I00
S'\xfc\x95\x1f\xd3\x1c\xbe\x19@'
p1270
tp1271
bsg28
g0
(g1
(I0
tp1272
g3
tp1273
Rp1274
(I1
(I1
tp1275
g22
I00
S'd\xef\x07f\xae\x91\x19@'
p1276
tp1277
bsg32
I0
sg33
I0
sbag1258
a(i__main__
PuffState
p1278
(dp1279
g16
g0
(g1
(I0
tp1280
g3
tp1281
Rp1282
(I1
(I1
tp1283
g22
I00
S'\xe8t\x1c\x88m\xc2\xf2?'
p1284
tp1285
bsg17
I0
sg18
g0
(g1
(I0
tp1286
g3
tp1287
Rp1288
(I1
(I1
tp1289
g22
I00
S'\xf8+?\xa69|\x1b@'
p1290
tp1291
bsg28
g0
(g1
(I0
tp1292
g3
tp1293
Rp1294
(I1
(I1
tp1295
g22
I00
S'\xc8\xde\x0f\xcc\\#\x1b@'
p1296
tp1297
bsg32
I0
sg33
I0
sbag1278
a(i__main__
PuffState
p1298
(dp1299
g16
g0
(g1
(I0
tp1300
g3
tp1301
Rp1302
(I1
(I1
tp1303
g22
I00
S'\\\xaf*L\xa4#\xfc?'
p1304
tp1305
bsg17
I0
sg18
g0
(g1
(I0
tp1306
g3
tp1307
Rp1308
(I1
(I1
tp1309
g22
I00
S'\xf4\xc1^yV:\x1d@'
p1310
tp1311
bsg28
g0
(g1
(I0
tp1312
g3
tp1313
Rp1314
(I1
(I1
tp1315
g22
I00
S',\xce\x172\x0b\xb5\x1c@'
p1316
tp1317
bsg32
I0
sg33
I0
sbag1298
a(i__main__
PuffState
p1318
(dp1319
g16
g0
(g1
(I0
tp1320
g3
tp1321
Rp1322
(I1
(I1
tp1323
g22
I00
S'\xe8t\x1c\x88m\xc2\x02@'
p1324
tp1325
bsg17
I0
sg18
g0
(g1
(I0
tp1326
g3
tp1327
Rp1328
(I1
(I1
tp1329
g22
I00
S'\xf0W~Ls\xf8\x1e@'
p1330
tp1331
bsg28
g0
(g1
(I0
tp1332
g3
tp1333
Rp1334
(I1
(I1
tp1335
g22
I00
S'\x90\xbd\x1f\x98\xb9F\x1e@'
p1336
tp1337
bsg32
I0
sg33
I0
sbag1318
a(i__main__
PuffState
p1338
(dp1339
g16
g0
(g1
(I0
tp1340
g3
tp1341
Rp1342
(I1
(I1
tp1343
g22
I00
S'"\x92#\xea\x08s\x07@'
p1344
tp1345
bsg17
I0
sg18
g0
(g1
(I0
tp1346
g3
tp1347
Rp1348
(I1
(I1
tp1349
g22
I00
S'\xf6\xf6\xce\x0fH[ @'
p1350
tp1351
bsg28
g0
(g1
(I0
tp1352
g3
tp1353
Rp1354
(I1
(I1
tp1355
g22
I00
S"\xf4\xac'\xfeg\xd8\x1f@"
p1356
tp1357
bsg32
I0
sg33
I0
sbag1338
a(i__main__
PuffState
p1358
(dp1359
g16
g0
(g1
(I0
tp1360
g3
tp1361
Rp1362
(I1
(I1
tp1363
g22
I00
S'\\\xaf*L\xa4#\x0c@'
p1364
tp1365
bsg17
I0
sg18
g0
(g1
(I0
tp1366
g3
tp1367
Rp1368
(I1
(I1
tp1369
g22
I00
S'\xf4\xc1^yV:!@'
p1370
tp1371
bsg28
g0
(g1
(I0
tp1372
g3
tp1373
Rp1374
(I1
(I1
tp1375
g22
I00
S',\xce\x172\x0b\xb5 @'
p1376
tp1377
bsg32
I0
sg33
I0
sbag1358
a(i__main__
PuffState
p1378
(dp1379
g16
g0
(g1
(I0
tp1380
g3
tp1381
Rp1382
(I1
(I1
tp1383
g22
I00
S'K\xe6\x18\xd7\x1fj\x10@'
p1384
tp1385
bsg17
I0
sg18
g0
(g1
(I0
tp1386
g3
tp1387
Rp1388
(I1
(I1
tp1389
g22
I00
S'\xf2\x8c\xee\xe2d\x19"@'
p1390
tp1391
bsg28
g0
(g1
(I0
tp1392
g3
tp1393
Rp1394
(I1
(I1
tp1395
g22
I00
S'\xde\xc5\x1be\xe2}!@'
p1396
tp1397
bsg32
I0
sg33
I0
sbag1378
a(i__main__
PuffState
p1398
(dp1399
g16
g0
(g1
(I0
tp1400
g3
tp1401
Rp1402
(I1
(I1
tp1403
g22
I00
S'\xe8t\x1c\x88m\xc2\x12@'
p1404
tp1405
bsg17
I0
sg18
g0
(g1
(I0
tp1406
g3
tp1407
Rp1408
(I1
(I1
tp1409
g22
I00
S'\xf0W~Ls\xf8"@'
p1410
tp1411
bsg28
g0
(g1
(I0
tp1412
g3
tp1413
Rp1414
(I1
(I1
tp1415
g22
I00
S'\x90\xbd\x1f\x98\xb9F"@'
p1416
tp1417
bsg32
I0
sg33
I0
sbag1398
a(i__main__
PuffState
p1418
(dp1419
g16
g0
(g1
(I0
tp1420
g3
tp1421
Rp1422
(I1
(I1
tp1423
g22
I00
S'\x85\x03 9\xbb\x1a\x15@'
p1424
tp1425
bsg17
I0
sg18
g0
(g1
(I0
tp1426
g3
tp1427
Rp1428
(I1
(I1
tp1429
g22
I00
S'\xee"\x0e\xb6\x81\xd7#@'
p1430
tp1431
bsg28
g0
(g1
(I0
tp1432
g3
tp1433
Rp1434
(I1
(I1
tp1435
g22
I00
S'B\xb5#\xcb\x90\x0f#@'
p1436
tp1437
bsg32
I0
sg33
I0
sbag1418
a(i__main__
PuffState
p1438
(dp1439
g16
g0
(g1
(I0
tp1440
g3
tp1441
Rp1442
(I1
(I1
tp1443
g22
I00
S'"\x92#\xea\x08s\x17@'
p1444
tp1445
bsg17
I0
sg18
g0
(g1
(I0
tp1446
g3
tp1447
Rp1448
(I1
(I1
tp1449
g22
I00
S'\xec\xed\x9d\x1f\x90\xb6$@'
p1450
tp1451
bsg28
g0
(g1
(I0
tp1452
g3
tp1453
Rp1454
(I1
(I1
tp1455
g22
I00
S"\xf4\xac'\xfeg\xd8#@"
p1456
tp1457
bsg32
I0
sg33
I0
sbag1438
a(i__main__
PuffState
p1458
(dp1459
g16
g0
(g1
(I0
tp1460
g3
tp1461
Rp1462
(I1
(I1
tp1463
g22
I00
S"\xbf '\x9bV\xcb\x19@"
p1464
tp1465
bsg17
I0
sg18
g0
(g1
(I0
tp1466
g3
tp1467
Rp1468
(I1
(I1
tp1469
g22
I00
S'\xea\xb8-\x89\x9e\x95%@'
p1470
tp1471
bsg28
g0
(g1
(I0
tp1472
g3
tp1473
Rp1474
(I1
(I1
tp1475
g22
I00
S'\xa6\xa4+1?\xa1$@'
p1476
tp1477
bsg32
I0
sg33
I0
sbag1458
a(i__main__
PuffState
p1478
(dp1479
g16
g0
(g1
(I0
tp1480
g3
tp1481
Rp1482
(I1
(I1
tp1483
g22
I00
S'\\\xaf*L\xa4#\x1c@'
p1484
tp1485
bsg17
I0
sg18
g0
(g1
(I0
tp1486
g3
tp1487
Rp1488
(I1
(I1
tp1489
g22
I00
S'\xe8\x83\xbd\xf2\xact&@'
p1490
tp1491
bsg28
g0
(g1
(I0
tp1492
g3
tp1493
Rp1494
(I1
(I1
tp1495
g22
I00
S'X\x9c/d\x16j%@'
p1496
tp1497
bsg32
I0
sg33
I0
sbag1478
a(i__main__
PuffState
p1498
(dp1499
g16
g0
(g1
(I0
tp1500
g3
tp1501
Rp1502
(I1
(I1
tp1503
g22
I00
S'\xf9=.\xfd\xf1{\x1e@'
p1504
tp1505
bsg17
I0
sg18
g0
(g1
(I0
tp1506
g3
tp1507
Rp1508
(I1
(I1
tp1509
g22
I00
S"\xe6NM\\\xbbS'@"
p1510
tp1511
bsg28
g0
(g1
(I0
tp1512
g3
tp1513
Rp1514
(I1
(I1
tp1515
g22
I00
S'\n\x943\x97\xed2&@'
p1516
tp1517
bsg32
I0
sg33
I0
sbag1498
a(i__main__
PuffState
p1518
(dp1519
g16
g0
(g1
(I0
tp1520
g3
tp1521
Rp1522
(I1
(I1
tp1523
g22
I00
S'K\xe6\x18\xd7\x1fj @'
p1524
tp1525
bsg17
I0
sg18
g0
(g1
(I0
tp1526
g3
tp1527
Rp1528
(I1
(I1
tp1529
g22
I00
S'\xe4\x19\xdd\xc5\xc92(@'
p1530
tp1531
bsg28
g0
(g1
(I0
tp1532
g3
tp1533
Rp1534
(I1
(I1
tp1535
g22
I00
S'\xbc\x8b7\xca\xc4\xfb&@'
p1536
tp1537
bsg32
I0
sg33
I0
sbag1518
a(i__main__
PuffState
p1538
(dp1539
g16
g0
(g1
(I0
tp1540
g3
tp1541
Rp1542
(I1
(I1
tp1543
g22
I00
S'\x9a\xad\x9a\xafF\x96!@'
p1544
tp1545
bsg17
I0
sg18
g0
(g1
(I0
tp1546
g3
tp1547
Rp1548
(I1
(I1
tp1549
g22
I00
S'\xe2\xe4l/\xd8\x11)@'
p1550
tp1551
bsg28
g0
(g1
(I0
tp1552
g3
tp1553
Rp1554
(I1
(I1
tp1555
g22
I00
S"n\x83;\xfd\x9b\xc4'@"
p1556
tp1557
bsg32
I0
sg33
I0
sbag1538
a(i__main__
PuffState
p1558
(dp1559
g16
g0
(g1
(I0
tp1560
g3
tp1561
Rp1562
(I1
(I1
tp1563
g22
I00
S'\xe8t\x1c\x88m\xc2"@'
p1564
tp1565
bsg17
I0
sg18
g0
(g1
(I0
tp1566
g3
tp1567
Rp1568
(I1
(I1
tp1569
g22
I00
S'\xe0\xaf\xfc\x98\xe6\xf0)@'
p1570
tp1571
bsg28
g0
(g1
(I0
tp1572
g3
tp1573
Rp1574
(I1
(I1
tp1575
g22
I00
S' {?0s\x8d(@'
p1576
tp1577
bsg32
I0
sg33
I0
sbag1558
a(i__main__
PuffState
p1578
(dp1579
g16
g0
(g1
(I0
tp1580
g3
tp1581
Rp1582
(I1
(I1
tp1583
g22
I00
S'6<\x9e`\x94\xee#@'
p1584
tp1585
bsg17
I0
sg18
g0
(g1
(I0
tp1586
g3
tp1587
Rp1588
(I1
(I1
tp1589
g22
I00
S'\xdez\x8c\x02\xf5\xcf*@'
p1590
tp1591
bsg28
g0
(g1
(I0
tp1592
g3
tp1593
Rp1594
(I1
(I1
tp1595
g22
I00
S'\xd2rCcJV)@'
p1596
tp1597
bsg32
I0
sg33
I0
sbag1578
a(i__main__
PuffState
p1598
(dp1599
g16
g0
(g1
(I0
tp1600
g3
tp1601
Rp1602
(I1
(I1
tp1603
g22
I00
S'\x84\x03 9\xbb\x1a%@'
p1604
tp1605
bsg17
I0
sg18
g0
(g1
(I0
tp1606
g3
tp1607
Rp1608
(I1
(I1
tp1609
g22
I00
S'\xdcE\x1cl\x03\xaf+@'
p1610
tp1611
bsg28
g0
(g1
(I0
tp1612
g3
tp1613
Rp1614
(I1
(I1
tp1615
g22
I00
S'\x84jG\x96!\x1f*@'
p1616
tp1617
bsg32
I0
sg33
I0
sbag1598
a(i__main__
PuffState
p1618
(dp1619
g16
g0
(g1
(I0
tp1620
g3
tp1621
Rp1622
(I1
(I1
tp1623
g22
I00
S'\xd2\xca\xa1\x11\xe2F&@'
p1624
tp1625
bsg17
I0
sg18
g0
(g1
(I0
tp1626
g3
tp1627
Rp1628
(I1
(I1
tp1629
g22
I00
S'\xda\x10\xac\xd5\x11\x8e,@'
p1630
tp1631
bsg28
g0
(g1
(I0
tp1632
g3
tp1633
Rp1634
(I1
(I1
tp1635
g22
I00
S'6bK\xc9\xf8\xe7*@'
p1636
tp1637
bsg32
I0
sg33
I0
sbag1618
a(i__main__
PuffState
p1638
(dp1639
g16
g0
(g1
(I0
tp1640
g3
tp1641
Rp1642
(I1
(I1
tp1643
g22
I00
S" \x92#\xea\x08s'@"
p1644
tp1645
bsg17
I0
sg18
g0
(g1
(I0
tp1646
g3
tp1647
Rp1648
(I1
(I1
tp1649
g22
I00
S'\xd8\xdb;? m-@'
p1650
tp1651
bsg28
g0
(g1
(I0
tp1652
g3
tp1653
Rp1654
(I1
(I1
tp1655
g22
I00
S'\xe8YO\xfc\xcf\xb0+@'
p1656
tp1657
bsg32
I0
sg33
I0
sba(i__main__
PuffState
p1658
(dp1659
g16
I0
sg17
I0
sg18
g19
(g22
S'\x00\x00\x00\x00\x00\x00\x18@'
p1660
tp1661
Rp1662
sg28
g19
(g22
S'\x00\x00\x00\x00\x00\x00\x18@'
p1663
tp1664
Rp1665
sg32
I0
sg33
I0
sba(i__main__
PuffState
p1666
(dp1667
g16
g0
(g1
(I0
tp1668
g3
tp1669
Rp1670
(I1
(I1
tp1671
g22
I00
S'u\xf2C\xab\xe1\x11\xe4?'
p1672
tp1673
bsg17
I0
sg18
g0
(g1
(I0
tp1674
g3
tp1675
Rp1676
(I1
(I1
tp1677
g22
I00
S'4\xa6H\x88\xb4\x11\x19@'
p1678
tp1679
bsg28
g0
(g1
(I0
tp1680
g3
tp1681
Rp1682
(I1
(I1
tp1683
g22
I00
S'8\x0f7\xe8\xfdD\x1a@'
p1684
tp1685
bsg32
I0
sg33
I0
sbag1666
a(i__main__
PuffState
p1686
(dp1687
g16
g0
(g1
(I0
tp1688
g3
tp1689
Rp1690
(I1
(I1
tp1691
g22
I00
S'u\xf2C\xab\xe1\x11\xf4?'
p1692
tp1693
bsg17
I0
sg18
g0
(g1
(I0
tp1694
g3
tp1695
Rp1696
(I1
(I1
tp1697
g22
I00
S'hL\x91\x10i#\x1a@'
p1698
tp1699
bsg28
g0
(g1
(I0
tp1700
g3
tp1701
Rp1702
(I1
(I1
tp1703
g22
I00
S'p\x1en\xd0\xfb\x89\x1c@'
p1704
tp1705
bsg32
I0
sg33
I0
sbag1686
a(i__main__
PuffState
p1706
(dp1707
g16
g0
(g1
(I0
tp1708
g3
tp1709
Rp1710
(I1
(I1
tp1711
g22
I00
S'\xb0\xeb\xe5\x80\xd2\x1a\xfe?'
p1712
tp1713
bsg17
I0
sg18
g0
(g1
(I0
tp1714
g3
tp1715
Rp1716
(I1
(I1
tp1717
g22
I00
S'\x9c\xf2\xd9\x98\x1d5\x1b@'
p1718
tp1719
bsg28
g0
(g1
(I0
tp1720
g3
tp1721
Rp1722
(I1
(I1
tp1723
g22
I00
S'\xa8-\xa5\xb8\xf9\xce\x1e@'
p1724
tp1725
bsg32
I0
sg33
I0
sbag1706
a(i__main__
PuffState
p1726
(dp1727
g16
g0
(g1
(I0
tp1728
g3
tp1729
Rp1730
(I1
(I1
tp1731
g22
I00
S'u\xf2C\xab\xe1\x11\x04@'
p1732
tp1733
bsg17
I0
sg18
g0
(g1
(I0
tp1734
g3
tp1735
Rp1736
(I1
(I1
tp1737
g22
I00
S'\xd0\x98"!\xd2F\x1c@'
p1738
tp1739
bsg28
g0
(g1
(I0
tp1740
g3
tp1741
Rp1742
(I1
(I1
tp1743
g22
I00
S'p\x1en\xd0\xfb\x89 @'
p1744
tp1745
bsg32
I0
sg33
I0
sbag1726
a(i__main__
PuffState
p1746
(dp1747
g16
g0
(g1
(I0
tp1748
g3
tp1749
Rp1750
(I1
(I1
tp1751
g22
I00
S'\x12\xef\x14\x16Z\x16\t@'
p1752
tp1753
bsg17
I0
sg18
g0
(g1
(I0
tp1754
g3
tp1755
Rp1756
(I1
(I1
tp1757
g22
I00
S'\x04?k\xa9\x86X\x1d@'
p1758
tp1759
bsg28
g0
(g1
(I0
tp1760
g3
tp1761
Rp1762
(I1
(I1
tp1763
g22
I00
S'\x0c\xa6\x89\xc4z\xac!@'
p1764
tp1765
bsg32
I0
sg33
I0
sbag1746
a(i__main__
PuffState
p1766
(dp1767
g16
g0
(g1
(I0
tp1768
g3
tp1769
Rp1770
(I1
(I1
tp1771
g22
I00
S'\xaf\xeb\xe5\x80\xd2\x1a\x0e@'
p1772
tp1773
bsg17
I0
sg18
g0
(g1
(I0
tp1774
g3
tp1775
Rp1776
(I1
(I1
tp1777
g22
I00
S'8\xe5\xb31;j\x1e@'
p1778
tp1779
bsg28
g0
(g1
(I0
tp1780
g3
tp1781
Rp1782
(I1
(I1
tp1783
g22
I00
S'\xa8-\xa5\xb8\xf9\xce"@'
p1784
tp1785
bsg32
I0
sg33
I0
sbag1766
a(i__main__
PuffState
p1786
(dp1787
g16
g0
(g1
(I0
tp1788
g3
tp1789
Rp1790
(I1
(I1
tp1791
g22
I00
S'&t\xdbu\xa5\x8f\x11@'
p1792
tp1793
bsg17
I0
sg18
g0
(g1
(I0
tp1794
g3
tp1795
Rp1796
(I1
(I1
tp1797
g22
I00
S'l\x8b\xfc\xb9\xef{\x1f@'
p1798
tp1799
bsg28
g0
(g1
(I0
tp1800
g3
tp1801
Rp1802
(I1
(I1
tp1803
g22
I00
S'D\xb5\xc0\xacx\xf1#@'
p1804
tp1805
bsg32
I0
sg33
I0
sbag1786
a(i__main__
PuffState
p1806
(dp1807
g16
g0
(g1
(I0
tp1808
g3
tp1809
Rp1810
(I1
(I1
tp1811
g22
I00
S'u\xf2C\xab\xe1\x11\x14@'
p1812
tp1813
bsg17
I0
sg18
g0
(g1
(I0
tp1814
g3
tp1815
Rp1816
(I1
(I1
tp1817
g22
I00
S'\xd0\x98"!\xd2F @'
p1818
tp1819
bsg28
g0
(g1
(I0
tp1820
g3
tp1821
Rp1822
(I1
(I1
tp1823
g22
I00
S'\xe0<\xdc\xa0\xf7\x13%@'
p1824
tp1825
bsg32
I0
sg33
I0
sbag1806
a(i__main__
PuffState
p1826
(dp1827
g16
g0
(g1
(I0
tp1828
g3
tp1829
Rp1830
(I1
(I1
tp1831
g22
I00
S'\xc4p\xac\xe0\x1d\x94\x16@'
p1832
tp1833
bsg17
I0
sg18
g0
(g1
(I0
tp1834
g3
tp1835
Rp1836
(I1
(I1
tp1837
g22
I00
S'\xea\xebFe\xac\xcf @'
p1838
tp1839
bsg28
g0
(g1
(I0
tp1840
g3
tp1841
Rp1842
(I1
(I1
tp1843
g22
I00
S'|\xc4\xf7\x94v6&@'
p1844
tp1845
bsg32
I0
sg33
I0
sbag1826
a(i__main__
PuffState
p1846
(dp1847
g16
g0
(g1
(I0
tp1848
g3
tp1849
Rp1850
(I1
(I1
tp1851
g22
I00
S'\x13\xef\x14\x16Z\x16\x19@'
p1852
tp1853
bsg17
I0
sg18
g0
(g1
(I0
tp1854
g3
tp1855
Rp1856
(I1
(I1
tp1857
g22
I00
S'\x04?k\xa9\x86X!@'
p1858
tp1859
bsg28
g0
(g1
(I0
tp1860
g3
tp1861
Rp1862
(I1
(I1
tp1863
g22
I00
S"\x18L\x13\x89\xf5X'@"
p1864
tp1865
bsg32
I0
sg33
I0
sbag1846
a(i__main__
PuffState
p1866
(dp1867
g16
g0
(g1
(I0
tp1868
g3
tp1869
Rp1870
(I1
(I1
tp1871
g22
I00
S'bm}K\x96\x98\x1b@'
p1872
tp1873
bsg17
I0
sg18
g0
(g1
(I0
tp1874
g3
tp1875
Rp1876
(I1
(I1
tp1877
g22
I00
S'\x1e\x92\x8f\xed`\xe1!@'
p1878
tp1879
bsg28
g0
(g1
(I0
tp1880
g3
tp1881
Rp1882
(I1
(I1
tp1883
g22
I00
S'\xb4\xd3.}t{(@'
p1884
tp1885
bsg32
I0
sg33
I0
sbag1866
a(i__main__
PuffState
p1886
(dp1887
g16
g0
(g1
(I0
tp1888
g3
tp1889
Rp1890
(I1
(I1
tp1891
g22
I00
S'\xb1\xeb\xe5\x80\xd2\x1a\x1e@'
p1892
tp1893
bsg17
I0
sg18
g0
(g1
(I0
tp1894
g3
tp1895
Rp1896
(I1
(I1
tp1897
g22
I00
S'8\xe5\xb31;j"@'
p1898
tp1899
bsg28
g0
(g1
(I0
tp1900
g3
tp1901
Rp1902
(I1
(I1
tp1903
g22
I00
S'P[Jq\xf3\x9d)@'
p1904
tp1905
bsg32
I0
sg33
I0
sbag1886
a(i__main__
PuffState
p1906
(dp1907
g16
g0
(g1
(I0
tp1908
g3
tp1909
Rp1910
(I1
(I1
tp1911
g22
I00
S"\x005'[\x87N @"
p1912
tp1913
bsg17
I0
sg18
g0
(g1
(I0
tp1914
g3
tp1915
Rp1916
(I1
(I1
tp1917
g22
I00
S'R8\xd8u\x15\xf3"@'
p1918
tp1919
bsg28
g0
(g1
(I0
tp1920
g3
tp1921
Rp1922
(I1
(I1
tp1923
g22
I00
S'\xec\xe2eer\xc0*@'
p1924
tp1925
bsg32
I0
sg33
I0
sbag1906
a(i__main__
PuffState
p1926
(dp1927
g16
g0
(g1
(I0
tp1928
g3
tp1929
Rp1930
(I1
(I1
tp1931
g22
I00
S"'t\xdbu\xa5\x8f!@"
p1932
tp1933
bsg17
I0
sg18
g0
(g1
(I0
tp1934
g3
tp1935
Rp1936
(I1
(I1
tp1937
g22
I00
S'l\x8b\xfc\xb9\xef{#@'
p1938
tp1939
bsg28
g0
(g1
(I0
tp1940
g3
tp1941
Rp1942
(I1
(I1
tp1943
g22
I00
S'\x88j\x81Y\xf1\xe2+@'
p1944
tp1945
bsg32
I0
sg33
I0
sbag1926
a(i__main__
PuffState
p1946
(dp1947
g16
g0
(g1
(I0
tp1948
g3
tp1949
Rp1950
(I1
(I1
tp1951
g22
I00
S'N\xb3\x8f\x90\xc3\xd0"@'
p1952
tp1953
bsg17
I0
sg18
g0
(g1
(I0
tp1954
g3
tp1955
Rp1956
(I1
(I1
tp1957
g22
I00
S'\x86\xde \xfe\xc9\x04$@'
p1958
tp1959
bsg28
g0
(g1
(I0
tp1960
g3
tp1961
Rp1962
(I1
(I1
tp1963
g22
I00
S'$\xf2\x9cMp\x05-@'
p1964
tp1965
bsg32
I0
sg33
I0
sbag1946
a(i__main__
PuffState
p1966
(dp1967
g16
g0
(g1
(I0
tp1968
g3
tp1969
Rp1970
(I1
(I1
tp1971
g22
I00
S'u\xf2C\xab\xe1\x11$@'
p1972
tp1973
bsg17
I0
sg18
g0
(g1
(I0
tp1974
g3
tp1975
Rp1976
(I1
(I1
tp1977
g22
I00
S'\xa01EB\xa4\x8d$@'
p1978
tp1979
bsg28
g0
(g1
(I0
tp1980
g3
tp1981
Rp1982
(I1
(I1
tp1983
g22
I00
S"\xc0y\xb8A\xef'.@"
p1984
tp1985
bsg32
I0
sg33
I0
sbag1966
a(i__main__
PuffState
p1986
(dp1987
g16
g0
(g1
(I0
tp1988
g3
tp1989
Rp1990
(I1
(I1
tp1991
g22
I00
S'\x9c1\xf8\xc5\xffR%@'
p1992
tp1993
bsg17
I0
sg18
g0
(g1
(I0
tp1994
g3
tp1995
Rp1996
(I1
(I1
tp1997
g22
I00
S'\xba\x84i\x86~\x16%@'
p1998
tp1999
bsg28
g0
(g1
(I0
tp2000
g3
tp2001
Rp2002
(I1
(I1
tp2003
g22
I00
S'\\\x01\xd45nJ/@'
p2004
tp2005
bsg32
I0
sg33
I0
sbag1986
a(i__main__
PuffState
p2006
(dp2007
g16
g0
(g1
(I0
tp2008
g3
tp2009
Rp2010
(I1
(I1
tp2011
g22
I00
S'\xc3p\xac\xe0\x1d\x94&@'
p2012
tp2013
bsg17
I0
sg18
g0
(g1
(I0
tp2014
g3
tp2015
Rp2016
(I1
(I1
tp2017
g22
I00
S'\xd4\xd7\x8d\xcaX\x9f%@'
p2018
tp2019
bsg28
g0
(g1
(I0
tp2020
g3
tp2021
Rp2022
(I1
(I1
tp2023
g22
I00
S'|\xc4\xf7\x94v60@'
p2024
tp2025
bsg32
I0
sg33
I0
sbag2006
a(i__main__
PuffState
p2026
(dp2027
g16
g0
(g1
(I0
tp2028
g3
tp2029
Rp2030
(I1
(I1
tp2031
g22
I00
S"\xea\xaf`\xfb;\xd5'@"
p2032
tp2033
bsg17
I0
sg18
g0
(g1
(I0
tp2034
g3
tp2035
Rp2036
(I1
(I1
tp2037
g22
I00
S'\xee*\xb2\x0e3(&@'
p2038
tp2039
bsg28
g0
(g1
(I0
tp2040
g3
tp2041
Rp2042
(I1
(I1
tp2043
g22
I00
S'J\x88\x05\x0f\xb6\xc70@'
p2044
tp2045
bsg32
I0
sg33
I0
sbag2026
a(i__main__
PuffState
p2046
(dp2047
g16
g0
(g1
(I0
tp2048
g3
tp2049
Rp2050
(I1
(I1
tp2051
g22
I00
S'\x11\xef\x14\x16Z\x16)@'
p2052
tp2053
bsg17
I0
sg18
g0
(g1
(I0
tp2054
g3
tp2055
Rp2056
(I1
(I1
tp2057
g22
I00
S'\x08~\xd6R\r\xb1&@'
p2058
tp2059
bsg28
g0
(g1
(I0
tp2060
g3
tp2061
Rp2062
(I1
(I1
tp2063
g22
I00
S'\x18L\x13\x89\xf5X1@'
p2064
tp2065
bsg32
I0
sg33
I0
sba(i__main__
PuffState
p2066
(dp2067
g16
I0
sg17
I0
sg18
g19
(g22
S'\x00\x00\x00\x00\x00\x00\x18@'
p2068
tp2069
Rp2070
sg28
g19
(g22
S'\x00\x00\x00\x00\x00\x00\x18@'
p2071
tp2072
Rp2073
sg32
I0
sg33
I0
sba(i__main__
PuffState
p2074
(dp2075
g16
g0
(g1
(I0
tp2076
g3
tp2077
Rp2078
(I1
(I1
tp2079
g22
I00
S'\xd9>\xa7,3W\xe1?'
p2080
tp2081
bsg17
I0
sg18
g0
(g1
(I0
tp2082
g3
tp2083
Rp2084
(I1
(I1
tp2085
g22
I00
S'\xc8\xecxF;0\x19@'
p2086
tp2087
bsg28
g0
(g1
(I0
tp2088
g3
tp2089
Rp2090
(I1
(I1
tp2091
g22
I00
S'\xa0G\x1e\xdf\x10\xd0\x19@'
p2092
tp2093
bsg32
I0
sg33
I0
sbag2074
a(i__main__
PuffState
p2094
(dp2095
g16
g0
(g1
(I0
tp2096
g3
tp2097
Rp2098
(I1
(I1
tp2099
g22
I00
S'\xd9>\xa7,3W\xf1?'
p2100
tp2101
bsg17
I0
sg18
g0
(g1
(I0
tp2102
g3
tp2103
Rp2104
(I1
(I1
tp2105
g22
I00
S'\x90\xd9\xf1\x8cv`\x1a@'
p2106
tp2107
bsg28
g0
(g1
(I0
tp2108
g3
tp2109
Rp2110
(I1
(I1
tp2111
g22
I00
S'@\x8f<\xbe!\xa0\x1b@'
p2112
tp2113
bsg32
I0
sg33
I0
sbag2094
a(i__main__
PuffState
p2114
(dp2115
g16
g0
(g1
(I0
tp2116
g3
tp2117
Rp2118
(I1
(I1
tp2119
g22
I00
S'F\xde\xfa\xc2\xcc\x02\xfa?'
p2120
tp2121
bsg17
I0
sg18
g0
(g1
(I0
tp2122
g3
tp2123
Rp2124
(I1
(I1
tp2125
g22
I00
S'X\xc6j\xd3\xb1\x90\x1b@'
p2126
tp2127
bsg28
g0
(g1
(I0
tp2128
g3
tp2129
Rp2130
(I1
(I1
tp2131
g22
I00
S'\xe0\xd6Z\x9d2p\x1d@'
p2132
tp2133
bsg32
I0
sg33
I0
sbag2114
a(i__main__
PuffState
p2134
(dp2135
g16
g0
(g1
(I0
tp2136
g3
tp2137
Rp2138
(I1
(I1
tp2139
g22
I00
S'\xd9>\xa7,3W\x01@'
p2140
tp2141
bsg17
I0
sg18
g0
(g1
(I0
tp2142
g3
tp2143
Rp2144
(I1
(I1
tp2145
g22
I00
S' \xb3\xe3\x19\xed\xc0\x1c@'
p2146
tp2147
bsg28
g0
(g1
(I0
tp2148
g3
tp2149
Rp2150
(I1
(I1
tp2151
g22
I00
S'\x80\x1ey|C@\x1f@'
p2152
tp2153
bsg32
I0
sg33
I0
sbag2134
a(i__main__
PuffState
p2154
(dp2155
g16
g0
(g1
(I0
tp2156
g3
tp2157
Rp2158
(I1
(I1
tp2159
g22
I00
S'\x8f\x0e\xd1\xf7\xff\xac\x05@'
p2160
tp2161
bsg17
I0
sg18
g0
(g1
(I0
tp2162
g3
tp2163
Rp2164
(I1
(I1
tp2165
g22
I00
S'\xe8\x9f\\`(\xf1\x1d@'
p2166
tp2167
bsg28
g0
(g1
(I0
tp2168
g3
tp2169
Rp2170
(I1
(I1
tp2171
g22
I00
S'\x10\xb3\xcb-*\x88 @'
p2172
tp2173
bsg32
I0
sg33
I0
sbag2154
a(i__main__
PuffState
p2174
(dp2175
g16
g0
(g1
(I0
tp2176
g3
tp2177
Rp2178
(I1
(I1
tp2179
g22
I00
S'E\xde\xfa\xc2\xcc\x02\n@'
p2180
tp2181
bsg17
I0
sg18
g0
(g1
(I0
tp2182
g3
tp2183
Rp2184
(I1
(I1
tp2185
g22
I00
S'\xb0\x8c\xd5\xa6c!\x1f@'
p2186
tp2187
bsg28
g0
(g1
(I0
tp2188
g3
tp2189
Rp2190
(I1
(I1
tp2191
g22
I00
S'\xe0\xd6Z\x9d2p!@'
p2192
tp2193
bsg32
I0
sg33
I0
sbag2174
a(i__main__
PuffState
p2194
(dp2195
g16
g0
(g1
(I0
tp2196
g3
tp2197
Rp2198
(I1
(I1
tp2199
g22
I00
S'\xfb\xad$\x8e\x99X\x0e@'
p2200
tp2201
bsg17
I0
sg18
g0
(g1
(I0
tp2202
g3
tp2203
Rp2204
(I1
(I1
tp2205
g22
I00
S'\xbc<\xa7v\xcf( @'
p2206
tp2207
bsg28
g0
(g1
(I0
tp2208
g3
tp2209
Rp2210
(I1
(I1
tp2211
g22
I00
S'\xb0\xfa\xe9\x0c;X"@'
p2212
tp2213
bsg32
I0
sg33
I0
sbag2194
a(i__main__
PuffState
p2214
(dp2215
g16
g0
(g1
(I0
tp2216
g3
tp2217
Rp2218
(I1
(I1
tp2219
g22
I00
S'\xd9>\xa7,3W\x11@'
p2220
tp2221
bsg17
I0
sg18
g0
(g1
(I0
tp2222
g3
tp2223
Rp2224
(I1
(I1
tp2225
g22
I00
S' \xb3\xe3\x19\xed\xc0 @'
p2226
tp2227
bsg28
g0
(g1
(I0
tp2228
g3
tp2229
Rp2230
(I1
(I1
tp2231
g22
I00
S'\x80\x1ey|C@#@'
p2232
tp2233
bsg32
I0
sg33
I0
sbag2214
a(i__main__
PuffState
p2234
(dp2235
g16
g0
(g1
(I0
tp2236
g3
tp2237
Rp2238
(I1
(I1
tp2239
g22
I00
S'\xb4&<\x92\x19\x82\x13@'
p2240
tp2241
bsg17
I0
sg18
g0
(g1
(I0
tp2242
g3
tp2243
Rp2244
(I1
(I1
tp2245
g22
I00
S'\x84) \xbd\nY!@'
p2246
tp2247
bsg28
g0
(g1
(I0
tp2248
g3
tp2249
Rp2250
(I1
(I1
tp2251
g22
I00
S'PB\x08\xecK($@'
p2252
tp2253
bsg32
I0
sg33
I0
sbag2234
a(i__main__
PuffState
p2254
(dp2255
g16
g0
(g1
(I0
tp2256
g3
tp2257
Rp2258
(I1
(I1
tp2259
g22
I00
S'\x8f\x0e\xd1\xf7\xff\xac\x15@'
p2260
tp2261
bsg17
I0
sg18
g0
(g1
(I0
tp2262
g3
tp2263
Rp2264
(I1
(I1
tp2265
g22
I00
S'\xe8\x9f\\`(\xf1!@'
p2266
tp2267
bsg28
g0
(g1
(I0
tp2268
g3
tp2269
Rp2270
(I1
(I1
tp2271
g22
I00
S' f\x97[T\x10%@'
p2272
tp2273
bsg32
I0
sg33
I0
sbag2254
a(i__main__
PuffState
p2274
(dp2275
g16
g0
(g1
(I0
tp2276
g3
tp2277
Rp2278
(I1
(I1
tp2279
g22
I00
S'j\xf6e]\xe6\xd7\x17@'
p2280
tp2281
bsg17
I0
sg18
g0
(g1
(I0
tp2282
g3
tp2283
Rp2284
(I1
(I1
tp2285
g22
I00
S'L\x16\x99\x03F\x89"@'
p2286
tp2287
bsg28
g0
(g1
(I0
tp2288
g3
tp2289
Rp2290
(I1
(I1
tp2291
g22
I00
S'\xf0\x89&\xcb\\\xf8%@'
p2292
tp2293
bsg32
I0
sg33
I0
sbag2274
a(i__main__
PuffState
p2294
(dp2295
g16
g0
(g1
(I0
tp2296
g3
tp2297
Rp2298
(I1
(I1
tp2299
g22
I00
S'E\xde\xfa\xc2\xcc\x02\x1a@'
p2300
tp2301
bsg17
I0
sg18
g0
(g1
(I0
tp2302
g3
tp2303
Rp2304
(I1
(I1
tp2305
g22
I00
S'\xb0\x8c\xd5\xa6c!#@'
p2306
tp2307
bsg28
g0
(g1
(I0
tp2308
g3
tp2309
Rp2310
(I1
(I1
tp2311
g22
I00
S'\xc0\xad\xb5:e\xe0&@'
p2312
tp2313
bsg32
I0
sg33
I0
sbag2294
a(i__main__
PuffState
p2314
(dp2315
g16
g0
(g1
(I0
tp2316
g3
tp2317
Rp2318
(I1
(I1
tp2319
g22
I00
S' \xc6\x8f(\xb3-\x1c@'
p2320
tp2321
bsg17
I0
sg18
g0
(g1
(I0
tp2322
g3
tp2323
Rp2324
(I1
(I1
tp2325
g22
I00
S'\x14\x03\x12J\x81\xb9#@'
p2326
tp2327
bsg28
g0
(g1
(I0
tp2328
g3
tp2329
Rp2330
(I1
(I1
tp2331
g22
I00
S"\x90\xd1D\xaam\xc8'@"
p2332
tp2333
bsg32
I0
sg33
I0
sbag2314
a(i__main__
PuffState
p2334
(dp2335
g16
g0
(g1
(I0
tp2336
g3
tp2337
Rp2338
(I1
(I1
tp2339
g22
I00
S'\xfb\xad$\x8e\x99X\x1e@'
p2340
tp2341
bsg17
I0
sg18
g0
(g1
(I0
tp2342
g3
tp2343
Rp2344
(I1
(I1
tp2345
g22
I00
S'xyN\xed\x9eQ$@'
p2346
tp2347
bsg28
g0
(g1
(I0
tp2348
g3
tp2349
Rp2350
(I1
(I1
tp2351
g22
I00
S'`\xf5\xd3\x19v\xb0(@'
p2352
tp2353
bsg32
I0
sg33
I0
sbag2334
a(i__main__
PuffState
p2354
(dp2355
g16
g0
(g1
(I0
tp2356
g3
tp2357
Rp2358
(I1
(I1
tp2359
g22
I00
S'\xeb\xca\xdc\xf9\xbfA @'
p2360
tp2361
bsg17
I0
sg18
g0
(g1
(I0
tp2362
g3
tp2363
Rp2364
(I1
(I1
tp2365
g22
I00
S'\xdc\xef\x8a\x90\xbc\xe9$@'
p2366
tp2367
bsg28
g0
(g1
(I0
tp2368
g3
tp2369
Rp2370
(I1
(I1
tp2371
g22
I00
S'0\x19c\x89~\x98)@'
p2372
tp2373
bsg32
I0
sg33
I0
sbag2354
a(i__main__
PuffState
p2374
(dp2375
g16
g0
(g1
(I0
tp2376
g3
tp2377
Rp2378
(I1
(I1
tp2379
g22
I00
S'\xd9>\xa7,3W!@'
p2380
tp2381
bsg17
I0
sg18
g0
(g1
(I0
tp2382
g3
tp2383
Rp2384
(I1
(I1
tp2385
g22
I00
S'@f\xc73\xda\x81%@'
p2386
tp2387
bsg28
g0
(g1
(I0
tp2388
g3
tp2389
Rp2390
(I1
(I1
tp2391
g22
I00
S'\x00=\xf2\xf8\x86\x80*@'
p2392
tp2393
bsg32
I0
sg33
I0
sbag2374
a(i__main__
PuffState
p2394
(dp2395
g16
g0
(g1
(I0
tp2396
g3
tp2397
Rp2398
(I1
(I1
tp2399
g22
I00
S'\xc7\xb2q_\xa6l"@'
p2400
tp2401
bsg17
I0
sg18
g0
(g1
(I0
tp2402
g3
tp2403
Rp2404
(I1
(I1
tp2405
g22
I00
S'\xa4\xdc\x03\xd7\xf7\x19&@'
p2406
tp2407
bsg28
g0
(g1
(I0
tp2408
g3
tp2409
Rp2410
(I1
(I1
tp2411
g22
I00
S'\xd0`\x81h\x8fh+@'
p2412
tp2413
bsg32
I0
sg33
I0
sbag2394
a(i__main__
PuffState
p2414
(dp2415
g16
g0
(g1
(I0
tp2416
g3
tp2417
Rp2418
(I1
(I1
tp2419
g22
I00
S'\xb5&<\x92\x19\x82#@'
p2420
tp2421
bsg17
I0
sg18
g0
(g1
(I0
tp2422
g3
tp2423
Rp2424
(I1
(I1
tp2425
g22
I00
S'\x08S@z\x15\xb2&@'
p2426
tp2427
bsg28
g0
(g1
(I0
tp2428
g3
tp2429
Rp2430
(I1
(I1
tp2431
g22
I00
S'\xa0\x84\x10\xd8\x97P,@'
p2432
tp2433
bsg32
I0
sg33
I0
sbag2414
a(i__main__
PuffState
p2434
(dp2435
g16
g0
(g1
(I0
tp2436
g3
tp2437
Rp2438
(I1
(I1
tp2439
g22
I00
S'\xa3\x9a\x06\xc5\x8c\x97$@'
p2440
tp2441
bsg17
I0
sg18
g0
(g1
(I0
tp2442
g3
tp2443
Rp2444
(I1
(I1
tp2445
g22
I00
S"l\xc9|\x1d3J'@"
p2446
tp2447
bsg28
g0
(g1
(I0
tp2448
g3
tp2449
Rp2450
(I1
(I1
tp2451
g22
I00
S'p\xa8\x9fG\xa08-@'
p2452
tp2453
bsg32
I0
sg33
I0
sbag2434
a(i__main__
PuffState
p2454
(dp2455
g16
g0
(g1
(I0
tp2456
g3
tp2457
Rp2458
(I1
(I1
tp2459
g22
I00
S'\x91\x0e\xd1\xf7\xff\xac%@'
p2460
tp2461
bsg17
I0
sg18
g0
(g1
(I0
tp2462
g3
tp2463
Rp2464
(I1
(I1
tp2465
g22
I00
S"\xd0?\xb9\xc0P\xe2'@"
p2466
tp2467
bsg28
g0
(g1
(I0
tp2468
g3
tp2469
Rp2470
(I1
(I1
tp2471
g22
I00
S'@\xcc.\xb7\xa8 .@'
p2472
tp2473
bsg32
I0
sg33
I0
sba(i__main__
PuffState
p2474
(dp2475
g16
I0
sg17
I0
sg18
g19
(g22
S'\x00\x00\x00\x00\x00\x00\x18@'
p2476
tp2477
Rp2478
sg28
g19
(g22
S'\x00\x00\x00\x00\x00\x00\x18@'
p2479
tp2480
Rp2481
sg32
I0
sg33
I0
sba(i__main__
PuffState
p2482
(dp2483
g16
g0
(g1
(I0
tp2484
g3
tp2485
Rp2486
(I1
(I1
tp2487
g22
I00
S'0\xda\x9a\x97\xe4l\xe0?'
p2488
tp2489
bsg17
I0
sg18
g0
(g1
(I0
tp2490
g3
tp2491
Rp2492
(I1
(I1
tp2493
g22
I00
S"bl'H\xfe}\x19@"
p2494
tp2495
bsg28
g0
(g1
(I0
tp2496
g3
tp2497
Rp2498
(I1
(I1
tp2499
g22
I00
S'\xcc\x90-\xd2\ti\x19@'
p2500
tp2501
bsg32
I0
sg33
I0
sbag2482
a(i__main__
PuffState
p2502
(dp2503
g16
g0
(g1
(I0
tp2504
g3
tp2505
Rp2506
(I1
(I1
tp2507
g22
I00
S'0\xda\x9a\x97\xe4l\xf0?'
p2508
tp2509
bsg17
I0
sg18
g0
(g1
(I0
tp2510
g3
tp2511
Rp2512
(I1
(I1
tp2513
g22
I00
S'\xc4\xd8N\x90\xfc\xfb\x1a@'
p2514
tp2515
bsg28
g0
(g1
(I0
tp2516
g3
tp2517
Rp2518
(I1
(I1
tp2519
g22
I00
S'\x98![\xa4\x13\xd2\x1a@'
p2520
tp2521
bsg32
I0
sg33
I0
sbag2502
a(i__main__
PuffState
p2522
(dp2523
g16
g0
(g1
(I0
tp2524
g3
tp2525
Rp2526
(I1
(I1
tp2527
g22
I00
S'HGh\xe3V\xa3\xf8?'
p2528
tp2529
bsg17
I0
sg18
g0
(g1
(I0
tp2530
g3
tp2531
Rp2532
(I1
(I1
tp2533
g22
I00
S'&Ev\xd8\xfay\x1c@'
p2534
tp2535
bsg28
g0
(g1
(I0
tp2536
g3
tp2537
Rp2538
(I1
(I1
tp2539
g22
I00
S'd\xb2\x88v\x1d;\x1c@'
p2540
tp2541
bsg32
I0
sg33
I0
sbag2522
a(i__main__
PuffState
p2542
(dp2543
g16
g0
(g1
(I0
tp2544
g3
tp2545
Rp2546
(I1
(I1
tp2547
g22
I00
S'0\xda\x9a\x97\xe4l\x00@'
p2548
tp2549
bsg17
I0
sg18
g0
(g1
(I0
tp2550
g3
tp2551
Rp2552
(I1
(I1
tp2553
g22
I00
S'\x88\xb1\x9d \xf9\xf7\x1d@'
p2554
tp2555
bsg28
g0
(g1
(I0
tp2556
g3
tp2557
Rp2558
(I1
(I1
tp2559
g22
I00
S"0C\xb6H'\xa4\x1d@"
p2560
tp2561
bsg32
I0
sg33
I0
sbag2542
a(i__main__
PuffState
p2562
(dp2563
g16
g0
(g1
(I0
tp2564
g3
tp2565
Rp2566
(I1
(I1
tp2567
g22
I00
S'\xbc\x90\x81\xbd\x1d\x88\x04@'
p2568
tp2569
bsg17
I0
sg18
g0
(g1
(I0
tp2570
g3
tp2571
Rp2572
(I1
(I1
tp2573
g22
I00
S'\xea\x1d\xc5h\xf7u\x1f@'
p2574
tp2575
bsg28
g0
(g1
(I0
tp2576
g3
tp2577
Rp2578
(I1
(I1
tp2579
g22
I00
S'\xfc\xd3\xe3\x1a1\r\x1f@'
p2580
tp2581
bsg32
I0
sg33
I0
sbag2562
a(i__main__
PuffState
p2582
(dp2583
g16
g0
(g1
(I0
tp2584
g3
tp2585
Rp2586
(I1
(I1
tp2587
g22
I00
S'HGh\xe3V\xa3\x08@'
p2588
tp2589
bsg17
I0
sg18
g0
(g1
(I0
tp2590
g3
tp2591
Rp2592
(I1
(I1
tp2593
g22
I00
S'&Ev\xd8\xfay @'
p2594
tp2595
bsg28
g0
(g1
(I0
tp2596
g3
tp2597
Rp2598
(I1
(I1
tp2599
g22
I00
S'd\xb2\x88v\x1d; @'
p2600
tp2601
bsg32
I0
sg33
I0
sbag2582
a(i__main__
PuffState
p2602
(dp2603
g16
g0
(g1
(I0
tp2604
g3
tp2605
Rp2606
(I1
(I1
tp2607
g22
I00
S'\xd4\xfdN\t\x90\xbe\x0c@'
p2608
tp2609
bsg17
I0
sg18
g0
(g1
(I0
tp2610
g3
tp2611
Rp2612
(I1
(I1
tp2613
g22
I00
S'W\xfb\x89\xfc\xf98!@'
p2614
tp2615
bsg28
g0
(g1
(I0
tp2616
g3
tp2617
Rp2618
(I1
(I1
tp2619
g22
I00
S'\xcaz\x9f_\xa2\xef @'
p2620
tp2621
bsg32
I0
sg33
I0
sbag2602
a(i__main__
PuffState
p2622
(dp2623
g16
g0
(g1
(I0
tp2624
g3
tp2625
Rp2626
(I1
(I1
tp2627
g22
I00
S'0\xda\x9a\x97\xe4l\x10@'
p2628
tp2629
bsg17
I0
sg18
g0
(g1
(I0
tp2630
g3
tp2631
Rp2632
(I1
(I1
tp2633
g22
I00
S'\x88\xb1\x9d \xf9\xf7!@'
p2634
tp2635
bsg28
g0
(g1
(I0
tp2636
g3
tp2637
Rp2638
(I1
(I1
tp2639
g22
I00
S"0C\xb6H'\xa4!@"
p2640
tp2641
bsg32
I0
sg33
I0
sbag2622
a(i__main__
PuffState
p2642
(dp2643
g16
g0
(g1
(I0
tp2644
g3
tp2645
Rp2646
(I1
(I1
tp2647
g22
I00
S'v5\x8e*\x81z\x12@'
p2648
tp2649
bsg17
I0
sg18
g0
(g1
(I0
tp2650
g3
tp2651
Rp2652
(I1
(I1
tp2653
g22
I00
S'\xb9g\xb1D\xf8\xb6"@'
p2654
tp2655
bsg28
g0
(g1
(I0
tp2656
g3
tp2657
Rp2658
(I1
(I1
tp2659
g22
I00
S'\x96\x0b\xcd1\xacX"@'
p2660
tp2661
bsg32
I0
sg33
I0
sbag2642
a(i__main__
PuffState
p2662
(dp2663
g16
g0
(g1
(I0
tp2664
g3
tp2665
Rp2666
(I1
(I1
tp2667
g22
I00
S'\xbc\x90\x81\xbd\x1d\x88\x14@'
p2668
tp2669
bsg17
I0
sg18
g0
(g1
(I0
tp2670
g3
tp2671
Rp2672
(I1
(I1
tp2673
g22
I00
S'\xea\x1d\xc5h\xf7u#@'
p2674
tp2675
bsg28
g0
(g1
(I0
tp2676
g3
tp2677
Rp2678
(I1
(I1
tp2679
g22
I00
S'\xfc\xd3\xe3\x1a1\r#@'
p2680
tp2681
bsg32
I0
sg33
I0
sbag2662
a(i__main__
PuffState
p2682
(dp2683
g16
g0
(g1
(I0
tp2684
g3
tp2685
Rp2686
(I1
(I1
tp2687
g22
I00
S'\x02\xectP\xba\x95\x16@'
p2688
tp2689
bsg17
I0
sg18
g0
(g1
(I0
tp2690
g3
tp2691
Rp2692
(I1
(I1
tp2693
g22
I00
S'\x1b\xd4\xd8\x8c\xf64$@'
p2694
tp2695
bsg28
g0
(g1
(I0
tp2696
g3
tp2697
Rp2698
(I1
(I1
tp2699
g22
I00
S'b\x9c\xfa\x03\xb6\xc1#@'
p2700
tp2701
bsg32
I0
sg33
I0
sbag2682
a(i__main__
PuffState
p2702
(dp2703
g16
g0
(g1
(I0
tp2704
g3
tp2705
Rp2706
(I1
(I1
tp2707
g22
I00
S'HGh\xe3V\xa3\x18@'
p2708
tp2709
bsg17
I0
sg18
g0
(g1
(I0
tp2710
g3
tp2711
Rp2712
(I1
(I1
tp2713
g22
I00
S'L\x8a\xec\xb0\xf5\xf3$@'
p2714
tp2715
bsg28
g0
(g1
(I0
tp2716
g3
tp2717
Rp2718
(I1
(I1
tp2719
g22
I00
S'\xc8d\x11\xed:v$@'
p2720
tp2721
bsg32
I0
sg33
I0
sbag2702
a(i__main__
PuffState
p2722
(dp2723
g16
g0
(g1
(I0
tp2724
g3
tp2725
Rp2726
(I1
(I1
tp2727
g22
I00
S'\x8e\xa2[v\xf3\xb0\x1a@'
p2728
tp2729
bsg17
I0
sg18
g0
(g1
(I0
tp2730
g3
tp2731
Rp2732
(I1
(I1
tp2733
g22
I00
S'}@\x00\xd5\xf4\xb2%@'
p2734
tp2735
bsg28
g0
(g1
(I0
tp2736
g3
tp2737
Rp2738
(I1
(I1
tp2739
g22
I00
S'.-(\xd6\xbf*%@'
p2740
tp2741
bsg32
I0
sg33
I0
sbag2722
a(i__main__
PuffState
p2742
(dp2743
g16
g0
(g1
(I0
tp2744
g3
tp2745
Rp2746
(I1
(I1
tp2747
g22
I00
S'\xd4\xfdN\t\x90\xbe\x1c@'
p2748
tp2749
bsg17
I0
sg18
g0
(g1
(I0
tp2750
g3
tp2751
Rp2752
(I1
(I1
tp2753
g22
I00
S'\xae\xf6\x13\xf9\xf3q&@'
p2754
tp2755
bsg28
g0
(g1
(I0
tp2756
g3
tp2757
Rp2758
(I1
(I1
tp2759
g22
I00
S'\x94\xf5>\xbfD\xdf%@'
p2760
tp2761
bsg32
I0
sg33
I0
sbag2742
a(i__main__
PuffState
p2762
(dp2763
g16
g0
(g1
(I0
tp2764
g3
tp2765
Rp2766
(I1
(I1
tp2767
g22
I00
S'\x1aYB\x9c,\xcc\x1e@'
p2768
tp2769
bsg17
I0
sg18
g0
(g1
(I0
tp2770
g3
tp2771
Rp2772
(I1
(I1
tp2773
g22
I00
S"\xdf\xac'\x1d\xf30'@"
p2774
tp2775
bsg28
g0
(g1
(I0
tp2776
g3
tp2777
Rp2778
(I1
(I1
tp2779
g22
I00
S'\xfa\xbdU\xa8\xc9\x93&@'
p2780
tp2781
bsg32
I0
sg33
I0
sbag2762
a(i__main__
PuffState
p2782
(dp2783
g16
g0
(g1
(I0
tp2784
g3
tp2785
Rp2786
(I1
(I1
tp2787
g22
I00
S'0\xda\x9a\x97\xe4l @'
p2788
tp2789
bsg17
I0
sg18
g0
(g1
(I0
tp2790
g3
tp2791
Rp2792
(I1
(I1
tp2793
g22
I00
S"\x10c;A\xf2\xef'@"
p2794
tp2795
bsg28
g0
(g1
(I0
tp2796
g3
tp2797
Rp2798
(I1
(I1
tp2799
g22
I00
S"`\x86l\x91NH'@"
p2800
tp2801
bsg32
I0
sg33
I0
sbag2782
a(i__main__
PuffState
p2802
(dp2803
g16
g0
(g1
(I0
tp2804
g3
tp2805
Rp2806
(I1
(I1
tp2807
g22
I00
S'\xd3\x87\x14\xe1\xb2s!@'
p2808
tp2809
bsg17
I0
sg18
g0
(g1
(I0
tp2810
g3
tp2811
Rp2812
(I1
(I1
tp2813
g22
I00
S'A\x19Oe\xf1\xae(@'
p2814
tp2815
bsg28
g0
(g1
(I0
tp2816
g3
tp2817
Rp2818
(I1
(I1
tp2819
g22
I00
S"\xc6N\x83z\xd3\xfc'@"
p2820
tp2821
bsg32
I0
sg33
I0
sbag2802
a(i__main__
PuffState
p2822
(dp2823
g16
g0
(g1
(I0
tp2824
g3
tp2825
Rp2826
(I1
(I1
tp2827
g22
I00
S'v5\x8e*\x81z"@'
p2828
tp2829
bsg17
I0
sg18
g0
(g1
(I0
tp2830
g3
tp2831
Rp2832
(I1
(I1
tp2833
g22
I00
S'r\xcfb\x89\xf0m)@'
p2834
tp2835
bsg28
g0
(g1
(I0
tp2836
g3
tp2837
Rp2838
(I1
(I1
tp2839
g22
I00
S',\x17\x9acX\xb1(@'
p2840
tp2841
bsg32
I0
sg33
I0
sbag2822
a(i__main__
PuffState
p2842
(dp2843
g16
g0
(g1
(I0
tp2844
g3
tp2845
Rp2846
(I1
(I1
tp2847
g22
I00
S'\x19\xe3\x07tO\x81#@'
p2848
tp2849
bsg17
I0
sg18
g0
(g1
(I0
tp2850
g3
tp2851
Rp2852
(I1
(I1
tp2853
g22
I00
S'\xa3\x85v\xad\xef,*@'
p2854
tp2855
bsg28
g0
(g1
(I0
tp2856
g3
tp2857
Rp2858
(I1
(I1
tp2859
g22
I00
S'\x92\xdf\xb0L\xdde)@'
p2860
tp2861
bsg32
I0
sg33
I0
sbag2842
a(i__main__
PuffState
p2862
(dp2863
g16
g0
(g1
(I0
tp2864
g3
tp2865
Rp2866
(I1
(I1
tp2867
g22
I00
S'\xbc\x90\x81\xbd\x1d\x88$@'
p2868
tp2869
bsg17
I0
sg18
g0
(g1
(I0
tp2870
g3
tp2871
Rp2872
(I1
(I1
tp2873
g22
I00
S'\xd4;\x8a\xd1\xee\xeb*@'
p2874
tp2875
bsg28
g0
(g1
(I0
tp2876
g3
tp2877
Rp2878
(I1
(I1
tp2879
g22
I00
S'\xf8\xa7\xc75b\x1a*@'
p2880
tp2881
bsg32
I0
sg33
I0
sba(i__main__
PuffState
p2882
(dp2883
g16
I0
sg17
I0
sg18
g19
(g22
S'\x00\x00\x00\x00\x00\x00\x18@'
p2884
tp2885
Rp2886
sg28
g19
(g22
S'\x00\x00\x00\x00\x00\x00\x18@'
p2887
tp2888
Rp2889
sg32
I0
sg33
I0
sba(i__main__
PuffState
p2890
(dp2891
g16
g0
(g1
(I0
tp2892
g3
tp2893
Rp2894
(I1
(I1
tp2895
g22
I00
S'\xf4\xd1%\x0c\xce\xb8\xe4?'
p2896
tp2897
bsg17
I0
sg18
g0
(g1
(I0
tp2898
g3
tp2899
Rp2900
(I1
(I1
tp2901
g22
I00
S'1\xe0L\x07(t\x19@'
p2902
tp2903
bsg28
g0
(g1
(I0
tp2904
g3
tp2905
Rp2906
(I1
(I1
tp2907
g22
I00
S'6\xd9\xfe\x9b\xd1$\x1a@'
p2908
tp2909
bsg32
I0
sg33
I0
sbag2890
a(i__main__
PuffState
p2910
(dp2911
g16
g0
(g1
(I0
tp2912
g3
tp2913
Rp2914
(I1
(I1
tp2915
g22
I00
S'\xf4\xd1%\x0c\xce\xb8\xf4?'
p2916
tp2917
bsg17
I0
sg18
g0
(g1
(I0
tp2918
g3
tp2919
Rp2920
(I1
(I1
tp2921
g22
I00
S'b\xc0\x99\x0eP\xe8\x1a@'
p2922
tp2923
bsg28
g0
(g1
(I0
tp2924
g3
tp2925
Rp2926
(I1
(I1
tp2927
g22
I00
S'l\xb2\xfd7\xa3I\x1c@'
p2928
tp2929
bsg32
I0
sg33
I0
sbag2910
a(i__main__
PuffState
p2930
(dp2931
g16
g0
(g1
(I0
tp2932
g3
tp2933
Rp2934
(I1
(I1
tp2935
g22
I00
S'\xee\xba8\x125\x15\xff?'
p2936
tp2937
bsg17
I0
sg18
g0
(g1
(I0
tp2938
g3
tp2939
Rp2940
(I1
(I1
tp2941
g22
I00
S'\x93\xa0\xe6\x15x\\\x1c@'
p2942
tp2943
bsg28
g0
(g1
(I0
tp2944
g3
tp2945
Rp2946
(I1
(I1
tp2947
g22
I00
S'\xa2\x8b\xfc\xd3tn\x1e@'
p2948
tp2949
bsg32
I0
sg33
I0
sbag2930
a(i__main__
PuffState
p2950
(dp2951
g16
g0
(g1
(I0
tp2952
g3
tp2953
Rp2954
(I1
(I1
tp2955
g22
I00
S'\xf4\xd1%\x0c\xce\xb8\x04@'
p2956
tp2957
bsg17
I0
sg18
g0
(g1
(I0
tp2958
g3
tp2959
Rp2960
(I1
(I1
tp2961
g22
I00
S'\xc4\x803\x1d\xa0\xd0\x1d@'
p2962
tp2963
bsg28
g0
(g1
(I0
tp2964
g3
tp2965
Rp2966
(I1
(I1
tp2967
g22
I00
S'l\xb2\xfd7\xa3I @'
p2968
tp2969
bsg32
I0
sg33
I0
sbag2950
a(i__main__
PuffState
p2970
(dp2971
g16
g0
(g1
(I0
tp2972
g3
tp2973
Rp2974
(I1
(I1
tp2975
g22
I00
S'qF/\x8f\x01\xe7\t@'
p2976
tp2977
bsg17
I0
sg18
g0
(g1
(I0
tp2978
g3
tp2979
Rp2980
(I1
(I1
tp2981
g22
I00
S'\xf5`\x80$\xc8D\x1f@'
p2982
tp2983
bsg28
g0
(g1
(I0
tp2984
g3
tp2985
Rp2986
(I1
(I1
tp2987
g22
I00
S'\x07\x1f\xfd\x05\x0c\\!@'
p2988
tp2989
bsg32
I0
sg33
I0
sbag2970
a(i__main__
PuffState
p2990
(dp2991
g16
g0
(g1
(I0
tp2992
g3
tp2993
Rp2994
(I1
(I1
tp2995
g22
I00
S'\xee\xba8\x125\x15\x0f@'
p2996
tp2997
bsg17
I0
sg18
g0
(g1
(I0
tp2998
g3
tp2999
Rp3000
(I1
(I1
tp3001
g22
I00
S'\x93\xa0\xe6\x15x\\ @'
p3002
tp3003
bsg28
g0
(g1
(I0
tp3004
g3
tp3005
Rp3006
(I1
(I1
tp3007
g22
I00
S'\xa2\x8b\xfc\xd3tn"@'
p3008
tp3009
bsg32
I0
sg33
I0
sbag2990
a(i__main__
PuffState
p3010
(dp3011
g16
g0
(g1
(I0
tp3012
g3
tp3013
Rp3014
(I1
(I1
tp3015
g22
I00
S'\xb6\x17\xa1J\xb4!\x12@'
p3016
tp3017
bsg17
I0
sg18
g0
(g1
(I0
tp3018
g3
tp3019
Rp3020
(I1
(I1
tp3021
g22
I00
S'\xac\x10\x8d\x19\x8c\x16!@'
p3022
tp3023
bsg28
g0
(g1
(I0
tp3024
g3
tp3025
Rp3026
(I1
(I1
tp3027
g22
I00
S'=\xf8\xfb\xa1\xdd\x80#@'
p3028
tp3029
bsg32
I0
sg33
I0
sbag3010
a(i__main__
PuffState
p3030
(dp3031
g16
g0
(g1
(I0
tp3032
g3
tp3033
Rp3034
(I1
(I1
tp3035
g22
I00
S'\xf4\xd1%\x0c\xce\xb8\x14@'
p3036
tp3037
bsg17
I0
sg18
g0
(g1
(I0
tp3038
g3
tp3039
Rp3040
(I1
(I1
tp3041
g22
I00
S'\xc5\x803\x1d\xa0\xd0!@'
p3042
tp3043
bsg28
g0
(g1
(I0
tp3044
g3
tp3045
Rp3046
(I1
(I1
tp3047
g22
I00
S'\xd8d\xfboF\x93$@'
p3048
tp3049
bsg32
I0
sg33
I0
sbag3030
a(i__main__
PuffState
p3050
(dp3051
g16
g0
(g1
(I0
tp3052
g3
tp3053
Rp3054
(I1
(I1
tp3055
g22
I00
S'2\x8c\xaa\xcd\xe7O\x17@'
p3056
tp3057
bsg17
I0
sg18
g0
(g1
(I0
tp3058
g3
tp3059
Rp3060
(I1
(I1
tp3061
g22
I00
S'\xde\xf0\xd9 \xb4\x8a"@'
p3062
tp3063
bsg28
g0
(g1
(I0
tp3064
g3
tp3065
Rp3066
(I1
(I1
tp3067
g22
I00
S's\xd1\xfa=\xaf\xa5%@'
p3068
tp3069
bsg32
I0
sg33
I0
sbag3050
a(i__main__
PuffState
p3070
(dp3071
g16
g0
(g1
(I0
tp3072
g3
tp3073
Rp3074
(I1
(I1
tp3075
g22
I00
S'pF/\x8f\x01\xe7\x19@'
p3076
tp3077
bsg17
I0
sg18
g0
(g1
(I0
tp3078
g3
tp3079
Rp3080
(I1
(I1
tp3081
g22
I00
S'\xf7`\x80$\xc8D#@'
p3082
tp3083
bsg28
g0
(g1
(I0
tp3084
g3
tp3085
Rp3086
(I1
(I1
tp3087
g22
I00
S'\x0e>\xfa\x0b\x18\xb8&@'
p3088
tp3089
bsg32
I0
sg33
I0
sbag3070
a(i__main__
PuffState
p3090
(dp3091
g16
g0
(g1
(I0
tp3092
g3
tp3093
Rp3094
(I1
(I1
tp3095
g22
I00
S'\xae\x00\xb4P\x1b~\x1c@'
p3096
tp3097
bsg17
I0
sg18
g0
(g1
(I0
tp3098
g3
tp3099
Rp3100
(I1
(I1
tp3101
g22
I00
S'\x10\xd1&(\xdc\xfe#@'
p3102
tp3103
bsg28
g0
(g1
(I0
tp3104
g3
tp3105
Rp3106
(I1
(I1
tp3107
g22
I00
S"\xa9\xaa\xf9\xd9\x80\xca'@"
p3108
tp3109
bsg32
I0
sg33
I0
sbag3090
a(i__main__
PuffState
p3110
(dp3111
g16
g0
(g1
(I0
tp3112
g3
tp3113
Rp3114
(I1
(I1
tp3115
g22
I00
S'\xec\xba8\x125\x15\x1f@'
p3116
tp3117
bsg17
I0
sg18
g0
(g1
(I0
tp3118
g3
tp3119
Rp3120
(I1
(I1
tp3121
g22
I00
S')A\xcd+\xf0\xb8$@'
p3122
tp3123
bsg28
g0
(g1
(I0
tp3124
g3
tp3125
Rp3126
(I1
(I1
tp3127
g22
I00
S'D\x17\xf9\xa7\xe9\xdc(@'
p3128
tp3129
bsg32
I0
sg33
I0
sbag3110
a(i__main__
PuffState
p3130
(dp3131
g16
g0
(g1
(I0
tp3132
g3
tp3133
Rp3134
(I1
(I1
tp3135
g22
I00
S"\x95\xba\xdei'\xd6 @"
p3136
tp3137
bsg17
I0
sg18
g0
(g1
(I0
tp3138
g3
tp3139
Rp3140
(I1
(I1
tp3141
g22
I00
S'B\xb1s/\x04s%@'
p3142
tp3143
bsg28
g0
(g1
(I0
tp3144
g3
tp3145
Rp3146
(I1
(I1
tp3147
g22
I00
S'\xdf\x83\xf8uR\xef)@'
p3148
tp3149
bsg32
I0
sg33
I0
sbag3130
a(i__main__
PuffState
p3150
(dp3151
g16
g0
(g1
(I0
tp3152
g3
tp3153
Rp3154
(I1
(I1
tp3155
g22
I00
S'\xb4\x17\xa1J\xb4!"@'
p3156
tp3157
bsg17
I0
sg18
g0
(g1
(I0
tp3158
g3
tp3159
Rp3160
(I1
(I1
tp3161
g22
I00
S'[!\x1a3\x18-&@'
p3162
tp3163
bsg28
g0
(g1
(I0
tp3164
g3
tp3165
Rp3166
(I1
(I1
tp3167
g22
I00
S'z\xf0\xf7C\xbb\x01+@'
p3168
tp3169
bsg32
I0
sg33
I0
sbag3150
a(i__main__
PuffState
p3170
(dp3171
g16
g0
(g1
(I0
tp3172
g3
tp3173
Rp3174
(I1
(I1
tp3175
g22
I00
S'\xd3tc+Am#@'
p3176
tp3177
bsg17
I0
sg18
g0
(g1
(I0
tp3178
g3
tp3179
Rp3180
(I1
(I1
tp3181
g22
I00
S't\x91\xc06,\xe7&@'
p3182
tp3183
bsg28
g0
(g1
(I0
tp3184
g3
tp3185
Rp3186
(I1
(I1
tp3187
g22
I00
S'\x15]\xf7\x11$\x14,@'
p3188
tp3189
bsg32
I0
sg33
I0
sbag3170
a(i__main__
PuffState
p3190
(dp3191
g16
g0
(g1
(I0
tp3192
g3
tp3193
Rp3194
(I1
(I1
tp3195
g22
I00
S'\xf2\xd1%\x0c\xce\xb8$@'
p3196
tp3197
bsg17
I0
sg18
g0
(g1
(I0
tp3198
g3
tp3199
Rp3200
(I1
(I1
tp3201
g22
I00
S"\x8d\x01g:@\xa1'@"
p3202
tp3203
bsg28
g0
(g1
(I0
tp3204
g3
tp3205
Rp3206
(I1
(I1
tp3207
g22
I00
S'\xb0\xc9\xf6\xdf\x8c&-@'
p3208
tp3209
bsg32
I0
sg33
I0
sbag3190
a(i__main__
PuffState
p3210
(dp3211
g16
g0
(g1
(I0
tp3212
g3
tp3213
Rp3214
(I1
(I1
tp3215
g22
I00
S'\x11/\xe8\xecZ\x04&@'
p3216
tp3217
bsg17
I0
sg18
g0
(g1
(I0
tp3218
g3
tp3219
Rp3220
(I1
(I1
tp3221
g22
I00
S'\xa6q\r>T[(@'
p3222
tp3223
bsg28
g0
(g1
(I0
tp3224
g3
tp3225
Rp3226
(I1
(I1
tp3227
g22
I00
S'K6\xf6\xad\xf58.@'
p3228
tp3229
bsg32
I0
sg33
I0
sbag3210
a(i__main__
PuffState
p3230
(dp3231
g16
g0
(g1
(I0
tp3232
g3
tp3233
Rp3234
(I1
(I1
tp3235
g22
I00
S"0\x8c\xaa\xcd\xe7O'@"
p3236
tp3237
bsg17
I0
sg18
g0
(g1
(I0
tp3238
g3
tp3239
Rp3240
(I1
(I1
tp3241
g22
I00
S'\xbf\xe1\xb3Ah\x15)@'
p3242
tp3243
bsg28
g0
(g1
(I0
tp3244
g3
tp3245
Rp3246
(I1
(I1
tp3247
g22
I00
S'\xe6\xa2\xf5{^K/@'
p3248
tp3249
bsg32
I0
sg33
I0
sbag3230
a(i__main__
PuffState
p3250
(dp3251
g16
g0
(g1
(I0
tp3252
g3
tp3253
Rp3254
(I1
(I1
tp3255
g22
I00
S'O\xe9l\xaet\x9b(@'
p3256
tp3257
bsg17
I0
sg18
g0
(g1
(I0
tp3258
g3
tp3259
Rp3260
(I1
(I1
tp3261
g22
I00
S'\xd8QZE|\xcf)@'
p3262
tp3263
bsg28
g0
(g1
(I0
tp3264
g3
tp3265
Rp3266
(I1
(I1
tp3267
g22
I00
S'\xc0\x87\xfa\xa4\xe3.0@'
p3268
tp3269
bsg32
I0
sg33
I0
sbag3250
a(i__main__
PuffState
p3270
(dp3271
g16
g0
(g1
(I0
tp3272
g3
tp3273
Rp3274
(I1
(I1
tp3275
g22
I00
S'nF/\x8f\x01\xe7)@'
p3276
tp3277
bsg17
I0
sg18
g0
(g1
(I0
tp3278
g3
tp3279
Rp3280
(I1
(I1
tp3281
g22
I00
S'\xf1\xc1\x00I\x90\x89*@'
p3282
tp3283
bsg28
g0
(g1
(I0
tp3284
g3
tp3285
Rp3286
(I1
(I1
tp3287
g22
I00
S'\r>\xfa\x0b\x18\xb80@'
p3288
tp3289
bsg32
I0
sg33
I0
sba(i__main__
PuffState
p3290
(dp3291
g16
I0
sg17
I0
sg18
g19
(g22
S'\x00\x00\x00\x00\x00\x00\x18@'
p3292
tp3293
Rp3294
sg28
g19
(g22
S'\x00\x00\x00\x00\x00\x00\x18@'
p3295
tp3296
Rp3297
sg32
I0
sg33
I0
sba(i__main__
PuffState
p3298
(dp3299
g16
g0
(g1
(I0
tp3300
g3
tp3301
Rp3302
(I1
(I1
tp3303
g22
I00
S'L\xb9\x08J\x92^\xe1?'
p3304
tp3305
bsg17
I0
sg18
g0
(g1
(I0
tp3306
g3
tp3307
Rp3308
(I1
(I1
tp3309
g22
I00
S'\x9c\xf5\x7f{\x0c_\x19@'
p3310
tp3311
bsg28
g0
(g1
(I0
tp3312
g3
tp3313
Rp3314
(I1
(I1
tp3315
g22
I00
S'y\xb2\x8d\x8b\xee\xae\x19@'
p3316
tp3317
bsg32
I0
sg33
I0
sbag3298
a(i__main__
PuffState
p3318
(dp3319
g16
g0
(g1
(I0
tp3320
g3
tp3321
Rp3322
(I1
(I1
tp3323
g22
I00
S'L\xb9\x08J\x92^\xf1?'
p3324
tp3325
bsg17
I0
sg18
g0
(g1
(I0
tp3326
g3
tp3327
Rp3328
(I1
(I1
tp3329
g22
I00
S'8\xeb\xff\xf6\x18\xbe\x1a@'
p3330
tp3331
bsg28
g0
(g1
(I0
tp3332
g3
tp3333
Rp3334
(I1
(I1
tp3335
g22
I00
S'\xf2d\x1b\x17\xdd]\x1b@'
p3336
tp3337
bsg32
I0
sg33
I0
sbag3318
a(i__main__
PuffState
p3338
(dp3339
g16
g0
(g1
(I0
tp3340
g3
tp3341
Rp3342
(I1
(I1
tp3343
g22
I00
S'\xf2\x15\ro\xdb\r\xfa?'
p3344
tp3345
bsg17
I0
sg18
g0
(g1
(I0
tp3346
g3
tp3347
Rp3348
(I1
(I1
tp3349
g22
I00
S'\xd4\xe0\x7fr%\x1d\x1c@'
p3350
tp3351
bsg28
g0
(g1
(I0
tp3352
g3
tp3353
Rp3354
(I1
(I1
tp3355
g22
I00
S'k\x17\xa9\xa2\xcb\x0c\x1d@'
p3356
tp3357
bsg32
I0
sg33
I0
sbag3338
a(i__main__
PuffState
p3358
(dp3359
g16
g0
(g1
(I0
tp3360
g3
tp3361
Rp3362
(I1
(I1
tp3363
g22
I00
S'L\xb9\x08J\x92^\x01@'
p3364
tp3365
bsg17
I0
sg18
g0
(g1
(I0
tp3366
g3
tp3367
Rp3368
(I1
(I1
tp3369
g22
I00
S'p\xd6\xff\xed1|\x1d@'
p3370
tp3371
bsg28
g0
(g1
(I0
tp3372
g3
tp3373
Rp3374
(I1
(I1
tp3375
g22
I00
S'\xe4\xc96.\xba\xbb\x1e@'
p3376
tp3377
bsg32
I0
sg33
I0
sbag3358
a(i__main__
PuffState
p3378
(dp3379
g16
g0
(g1
(I0
tp3380
g3
tp3381
Rp3382
(I1
(I1
tp3383
g22
I00
S'\x9f\xe7\x8a\xdc6\xb6\x05@'
p3384
tp3385
bsg17
I0
sg18
g0
(g1
(I0
tp3386
g3
tp3387
Rp3388
(I1
(I1
tp3389
g22
I00
S'\x0c\xcc\x7fi>\xdb\x1e@'
p3390
tp3391
bsg28
g0
(g1
(I0
tp3392
g3
tp3393
Rp3394
(I1
(I1
tp3395
g22
I00
S'/>\xe2\\T5 @'
p3396
tp3397
bsg32
I0
sg33
I0
sbag3378
a(i__main__
PuffState
p3398
(dp3399
g16
g0
(g1
(I0
tp3400
g3
tp3401
Rp3402
(I1
(I1
tp3403
g22
I00
S'\xf2\x15\ro\xdb\r\n@'
p3404
tp3405
bsg17
I0
sg18
g0
(g1
(I0
tp3406
g3
tp3407
Rp3408
(I1
(I1
tp3409
g22
I00
S'\xd4\xe0\x7fr%\x1d @'
p3410
tp3411
bsg28
g0
(g1
(I0
tp3412
g3
tp3413
Rp3414
(I1
(I1
tp3415
g22
I00
S'l\x17\xa9\xa2\xcb\x0c!@'
p3416
tp3417
bsg32
I0
sg33
I0
sbag3398
a(i__main__
PuffState
p3418
(dp3419
g16
g0
(g1
(I0
tp3420
g3
tp3421
Rp3422
(I1
(I1
tp3423
g22
I00
S'ED\x8f\x01\x80e\x0e@'
p3424
tp3425
bsg17
I0
sg18
g0
(g1
(I0
tp3426
g3
tp3427
Rp3428
(I1
(I1
tp3429
g22
I00
S'\xa2\xdb?\xb0\xab\xcc @'
p3430
tp3431
bsg28
g0
(g1
(I0
tp3432
g3
tp3433
Rp3434
(I1
(I1
tp3435
g22
I00
S'\xa9\xf0o\xe8B\xe4!@'
p3436
tp3437
bsg32
I0
sg33
I0
sbag3418
a(i__main__
PuffState
p3438
(dp3439
g16
g0
(g1
(I0
tp3440
g3
tp3441
Rp3442
(I1
(I1
tp3443
g22
I00
S'L\xb9\x08J\x92^\x11@'
p3444
tp3445
bsg17
I0
sg18
g0
(g1
(I0
tp3446
g3
tp3447
Rp3448
(I1
(I1
tp3449
g22
I00
S'p\xd6\xff\xed1|!@'
p3450
tp3451
bsg28
g0
(g1
(I0
tp3452
g3
tp3453
Rp3454
(I1
(I1
tp3455
g22
I00
S'\xe6\xc96.\xba\xbb"@'
p3456
tp3457
bsg32
I0
sg33
I0
sbag3438
a(i__main__
PuffState
p3458
(dp3459
g16
g0
(g1
(I0
tp3460
g3
tp3461
Rp3462
(I1
(I1
tp3463
g22
I00
S'v\xd0I\x93d\x8a\x13@'
p3464
tp3465
bsg17
I0
sg18
g0
(g1
(I0
tp3466
g3
tp3467
Rp3468
(I1
(I1
tp3469
g22
I00
S'>\xd1\xbf+\xb8+"@'
p3470
tp3471
bsg28
g0
(g1
(I0
tp3472
g3
tp3473
Rp3474
(I1
(I1
tp3475
g22
I00
S'#\xa3\xfds1\x93#@'
p3476
tp3477
bsg32
I0
sg33
I0
sbag3458
a(i__main__
PuffState
p3478
(dp3479
g16
g0
(g1
(I0
tp3480
g3
tp3481
Rp3482
(I1
(I1
tp3483
g22
I00
S'\xa0\xe7\x8a\xdc6\xb6\x15@'
p3484
tp3485
bsg17
I0
sg18
g0
(g1
(I0
tp3486
g3
tp3487
Rp3488
(I1
(I1
tp3489
g22
I00
S'\x0c\xcc\x7fi>\xdb"@'
p3490
tp3491
bsg28
g0
(g1
(I0
tp3492
g3
tp3493
Rp3494
(I1
(I1
tp3495
g22
I00
S'`|\xc4\xb9\xa8j$@'
p3496
tp3497
bsg32
I0
sg33
I0
sbag3478
a(i__main__
PuffState
p3498
(dp3499
g16
g0
(g1
(I0
tp3500
g3
tp3501
Rp3502
(I1
(I1
tp3503
g22
I00
S'\xca\xfe\xcb%\t\xe2\x17@'
p3504
tp3505
bsg17
I0
sg18
g0
(g1
(I0
tp3506
g3
tp3507
Rp3508
(I1
(I1
tp3509
g22
I00
S'\xda\xc6?\xa7\xc4\x8a#@'
p3510
tp3511
bsg28
g0
(g1
(I0
tp3512
g3
tp3513
Rp3514
(I1
(I1
tp3515
g22
I00
S'\x9dU\x8b\xff\x1fB%@'
p3516
tp3517
bsg32
I0
sg33
I0
sbag3498
a(i__main__
PuffState
p3518
(dp3519
g16
g0
(g1
(I0
tp3520
g3
tp3521
Rp3522
(I1
(I1
tp3523
g22
I00
S'\xf4\x15\ro\xdb\r\x1a@'
p3524
tp3525
bsg17
I0
sg18
g0
(g1
(I0
tp3526
g3
tp3527
Rp3528
(I1
(I1
tp3529
g22
I00
S'\xa8\xc1\xff\xe4J:$@'
p3530
tp3531
bsg28
g0
(g1
(I0
tp3532
g3
tp3533
Rp3534
(I1
(I1
tp3535
g22
I00
S'\xda.RE\x97\x19&@'
p3536
tp3537
bsg32
I0
sg33
I0
sbag3518
a(i__main__
PuffState
p3538
(dp3539
g16
g0
(g1
(I0
tp3540
g3
tp3541
Rp3542
(I1
(I1
tp3543
g22
I00
S'\x1e-N\xb8\xad9\x1c@'
p3544
tp3545
bsg17
I0
sg18
g0
(g1
(I0
tp3546
g3
tp3547
Rp3548
(I1
(I1
tp3549
g22
I00
S'v\xbc\xbf"\xd1\xe9$@'
p3550
tp3551
bsg28
g0
(g1
(I0
tp3552
g3
tp3553
Rp3554
(I1
(I1
tp3555
g22
I00
S'\x17\x08\x19\x8b\x0e\xf1&@'
p3556
tp3557
bsg32
I0
sg33
I0
sbag3538
a(i__main__
PuffState
p3558
(dp3559
g16
g0
(g1
(I0
tp3560
g3
tp3561
Rp3562
(I1
(I1
tp3563
g22
I00
S'HD\x8f\x01\x80e\x1e@'
p3564
tp3565
bsg17
I0
sg18
g0
(g1
(I0
tp3566
g3
tp3567
Rp3568
(I1
(I1
tp3569
g22
I00
S'D\xb7\x7f`W\x99%@'
p3570
tp3571
bsg28
g0
(g1
(I0
tp3572
g3
tp3573
Rp3574
(I1
(I1
tp3575
g22
I00
S"T\xe1\xdf\xd0\x85\xc8'@"
p3576
tp3577
bsg32
I0
sg33
I0
sbag3558
a(i__main__
PuffState
p3578
(dp3579
g16
g0
(g1
(I0
tp3580
g3
tp3581
Rp3582
(I1
(I1
tp3583
g22
I00
S'\xb9-h%\xa9H @'
p3584
tp3585
bsg17
I0
sg18
g0
(g1
(I0
tp3586
g3
tp3587
Rp3588
(I1
(I1
tp3589
g22
I00
S'\x12\xb2?\x9e\xddH&@'
p3590
tp3591
bsg28
g0
(g1
(I0
tp3592
g3
tp3593
Rp3594
(I1
(I1
tp3595
g22
I00
S'\x91\xba\xa6\x16\xfd\x9f(@'
p3596
tp3597
bsg32
I0
sg33
I0
sbag3578
a(i__main__
PuffState
p3598
(dp3599
g16
g0
(g1
(I0
tp3600
g3
tp3601
Rp3602
(I1
(I1
tp3603
g22
I00
S'N\xb9\x08J\x92^!@'
p3604
tp3605
bsg17
I0
sg18
g0
(g1
(I0
tp3606
g3
tp3607
Rp3608
(I1
(I1
tp3609
g22
I00
S'\xe0\xac\xff\xdbc\xf8&@'
p3610
tp3611
bsg28
g0
(g1
(I0
tp3612
g3
tp3613
Rp3614
(I1
(I1
tp3615
g22
I00
S'\xce\x93m\\tw)@'
p3616
tp3617
bsg32
I0
sg33
I0
sbag3598
a(i__main__
PuffState
p3618
(dp3619
g16
g0
(g1
(I0
tp3620
g3
tp3621
Rp3622
(I1
(I1
tp3623
g22
I00
S'\xe3D\xa9n{t"@'
p3624
tp3625
bsg17
I0
sg18
g0
(g1
(I0
tp3626
g3
tp3627
Rp3628
(I1
(I1
tp3629
g22
I00
S"\xae\xa7\xbf\x19\xea\xa7'@"
p3630
tp3631
bsg28
g0
(g1
(I0
tp3632
g3
tp3633
Rp3634
(I1
(I1
tp3635
g22
I00
S'\x0bm4\xa2\xebN*@'
p3636
tp3637
bsg32
I0
sg33
I0
sbag3618
a(i__main__
PuffState
p3638
(dp3639
g16
g0
(g1
(I0
tp3640
g3
tp3641
Rp3642
(I1
(I1
tp3643
g22
I00
S'x\xd0I\x93d\x8a#@'
p3644
tp3645
bsg17
I0
sg18
g0
(g1
(I0
tp3646
g3
tp3647
Rp3648
(I1
(I1
tp3649
g22
I00
S'|\xa2\x7fWpW(@'
p3650
tp3651
bsg28
g0
(g1
(I0
tp3652
g3
tp3653
Rp3654
(I1
(I1
tp3655
g22
I00
S'HF\xfb\xe7b&+@'
p3656
tp3657
bsg32
I0
sg33
I0
sbag3638
a(i__main__
PuffState
p3658
(dp3659
g16
g0
(g1
(I0
tp3660
g3
tp3661
Rp3662
(I1
(I1
tp3663
g22
I00
S'\r\\\xea\xb7M\xa0$@'
p3664
tp3665
bsg17
I0
sg18
g0
(g1
(I0
tp3666
g3
tp3667
Rp3668
(I1
(I1
tp3669
g22
I00
S'J\x9d?\x95\xf6\x06)@'
p3670
tp3671
bsg28
g0
(g1
(I0
tp3672
g3
tp3673
Rp3674
(I1
(I1
tp3675
g22
I00
S'\x85\x1f\xc2-\xda\xfd+@'
p3676
tp3677
bsg32
I0
sg33
I0
sbag3658
a(i__main__
PuffState
p3678
(dp3679
g16
g0
(g1
(I0
tp3680
g3
tp3681
Rp3682
(I1
(I1
tp3683
g22
I00
S'\xa2\xe7\x8a\xdc6\xb6%@'
p3684
tp3685
bsg17
I0
sg18
g0
(g1
(I0
tp3686
g3
tp3687
Rp3688
(I1
(I1
tp3689
g22
I00
S'\x18\x98\xff\xd2|\xb6)@'
p3690
tp3691
bsg28
g0
(g1
(I0
tp3692
g3
tp3693
Rp3694
(I1
(I1
tp3695
g22
I00
S'\xc2\xf8\x88sQ\xd5,@'
p3696
tp3697
bsg32
I0
sg33
I0
sba(i__main__
PuffState
p3698
(dp3699
g16
I0
sg17
I0
sg18
g19
(g22
S'\x00\x00\x00\x00\x00\x00\x18@'
p3700
tp3701
Rp3702
sg28
g19
(g22
S'\x00\x00\x00\x00\x00\x00\x18@'
p3703
tp3704
Rp3705
sg32
I0
sg33
I0
sba(i__main__
PuffState
p3706
(dp3707
g16
g0
(g1
(I0
tp3708
g3
tp3709
Rp3710
(I1
(I1
tp3711
g22
I00
S'\x9em\xf5U.h\xe2?'
p3712
tp3713
bsg17
I0
sg18
g0
(g1
(I0
tp3714
g3
tp3715
Rp3716
(I1
(I1
tp3717
g22
I00
S'\xbe\x8e\x9d1&\x12\x1a@'
p3718
tp3719
bsg28
g0
(g1
(I0
tp3720
g3
tp3721
Rp3722
(I1
(I1
tp3723
g22
I00
S'\x0f\x02\x1f\x81\xb0\x00\x19@'
p3724
tp3725
bsg32
I0
sg33
I0
sbag3706
a(i__main__
PuffState
p3726
(dp3727
g16
g0
(g1
(I0
tp3728
g3
tp3729
Rp3730
(I1
(I1
tp3731
g22
I00
S'\x9em\xf5U.h\xf2?'
p3732
tp3733
bsg17
I0
sg18
g0
(g1
(I0
tp3734
g3
tp3735
Rp3736
(I1
(I1
tp3737
g22
I00
S'|\x1d;cL$\x1c@'
p3738
tp3739
bsg28
g0
(g1
(I0
tp3740
g3
tp3741
Rp3742
(I1
(I1
tp3743
g22
I00
S'\x1e\x04>\x02a\x01\x1a@'
p3744
tp3745
bsg32
I0
sg33
I0
sbag3726
a(i__main__
PuffState
p3746
(dp3747
g16
g0
(g1
(I0
tp3748
g3
tp3749
Rp3750
(I1
(I1
tp3751
g22
I00
S'm$\xf0\x80E\x9c\xfb?'
p3752
tp3753
bsg17
I0
sg18
g0
(g1
(I0
tp3754
g3
tp3755
Rp3756
(I1
(I1
tp3757
g22
I00
S':\xac\xd8\x94r6\x1e@'
p3758
tp3759
bsg28
g0
(g1
(I0
tp3760
g3
tp3761
Rp3762
(I1
(I1
tp3763
g22
I00
S'-\x06]\x83\x11\x02\x1b@'
p3764
tp3765
bsg32
I0
sg33
I0
sbag3746
a(i__main__
PuffState
p3766
(dp3767
g16
g0
(g1
(I0
tp3768
g3
tp3769
Rp3770
(I1
(I1
tp3771
g22
I00
S'\x9em\xf5U.h\x02@'
p3772
tp3773
bsg17
I0
sg18
g0
(g1
(I0
tp3774
g3
tp3775
Rp3776
(I1
(I1
tp3777
g22
I00
S'|\x1d;cL$ @'
p3778
tp3779
bsg28
g0
(g1
(I0
tp3780
g3
tp3781
Rp3782
(I1
(I1
tp3783
g22
I00
S'<\x08|\x04\xc2\x02\x1c@'
p3784
tp3785
bsg32
I0
sg33
I0
sbag3766
a(i__main__
PuffState
p3786
(dp3787
g16
g0
(g1
(I0
tp3788
g3
tp3789
Rp3790
(I1
(I1
tp3791
g22
I00
S'\x06\xc9r\xeb9\x02\x07@'
p3792
tp3793
bsg17
I0
sg18
g0
(g1
(I0
tp3794
g3
tp3795
Rp3796
(I1
(I1
tp3797
g22
I00
S'\xdb\xe4\t|_-!@'
p3798
tp3799
bsg28
g0
(g1
(I0
tp3800
g3
tp3801
Rp3802
(I1
(I1
tp3803
g22
I00
S'K\n\x9b\x85r\x03\x1d@'
p3804
tp3805
bsg32
I0
sg33
I0
sbag3786
a(i__main__
PuffState
p3806
(dp3807
g16
g0
(g1
(I0
tp3808
g3
tp3809
Rp3810
(I1
(I1
tp3811
g22
I00
S'n$\xf0\x80E\x9c\x0b@'
p3812
tp3813
bsg17
I0
sg18
g0
(g1
(I0
tp3814
g3
tp3815
Rp3816
(I1
(I1
tp3817
g22
I00
S':\xac\xd8\x94r6"@'
p3818
tp3819
bsg28
g0
(g1
(I0
tp3820
g3
tp3821
Rp3822
(I1
(I1
tp3823
g22
I00
S'Z\x0c\xba\x06#\x04\x1e@'
p3824
tp3825
bsg32
I0
sg33
I0
sbag3806
a(i__main__
PuffState
p3826
(dp3827
g16
g0
(g1
(I0
tp3828
g3
tp3829
Rp3830
(I1
(I1
tp3831
g22
I00
S'\xeb\xbf6\x8b(\x1b\x10@'
p3832
tp3833
bsg17
I0
sg18
g0
(g1
(I0
tp3834
g3
tp3835
Rp3836
(I1
(I1
tp3837
g22
I00
S'\x99s\xa7\xad\x85?#@'
p3838
tp3839
bsg28
g0
(g1
(I0
tp3840
g3
tp3841
Rp3842
(I1
(I1
tp3843
g22
I00
S'i\x0e\xd9\x87\xd3\x04\x1f@'
p3844
tp3845
bsg32
I0
sg33
I0
sbag3826
a(i__main__
PuffState
p3846
(dp3847
g16
g0
(g1
(I0
tp3848
g3
tp3849
Rp3850
(I1
(I1
tp3851
g22
I00
S'\x9fm\xf5U.h\x12@'
p3852
tp3853
bsg17
I0
sg18
g0
(g1
(I0
tp3854
g3
tp3855
Rp3856
(I1
(I1
tp3857
g22
I00
S'\xf8:v\xc6\x98H$@'
p3858
tp3859
bsg28
g0
(g1
(I0
tp3860
g3
tp3861
Rp3862
(I1
(I1
tp3863
g22
I00
S'<\x08|\x04\xc2\x02 @'
p3864
tp3865
bsg32
I0
sg33
I0
sbag3846
a(i__main__
PuffState
p3866
(dp3867
g16
g0
(g1
(I0
tp3868
g3
tp3869
Rp3870
(I1
(I1
tp3871
g22
I00
S'S\x1b\xb4 4\xb5\x14@'
p3872
tp3873
bsg17
I0
sg18
g0
(g1
(I0
tp3874
g3
tp3875
Rp3876
(I1
(I1
tp3877
g22
I00
S'W\x02E\xdf\xabQ%@'
p3878
tp3879
bsg28
g0
(g1
(I0
tp3880
g3
tp3881
Rp3882
(I1
(I1
tp3883
g22
I00
S'D\x89\x0bE\x1a\x83 @'
p3884
tp3885
bsg32
I0
sg33
I0
sbag3866
a(i__main__
PuffState
p3886
(dp3887
g16
g0
(g1
(I0
tp3888
g3
tp3889
Rp3890
(I1
(I1
tp3891
g22
I00
S'\x07\xc9r\xeb9\x02\x17@'
p3892
tp3893
bsg17
I0
sg18
g0
(g1
(I0
tp3894
g3
tp3895
Rp3896
(I1
(I1
tp3897
g22
I00
S'\xb6\xc9\x13\xf8\xbeZ&@'
p3898
tp3899
bsg28
g0
(g1
(I0
tp3900
g3
tp3901
Rp3902
(I1
(I1
tp3903
g22
I00
S'L\n\x9b\x85r\x03!@'
p3904
tp3905
bsg32
I0
sg33
I0
sbag3886
a(i__main__
PuffState
p3906
(dp3907
g16
g0
(g1
(I0
tp3908
g3
tp3909
Rp3910
(I1
(I1
tp3911
g22
I00
S'\xbbv1\xb6?O\x19@'
p3912
tp3913
bsg17
I0
sg18
g0
(g1
(I0
tp3914
g3
tp3915
Rp3916
(I1
(I1
tp3917
g22
I00
S"\x15\x91\xe2\x10\xd2c'@"
p3918
tp3919
bsg28
g0
(g1
(I0
tp3920
g3
tp3921
Rp3922
(I1
(I1
tp3923
g22
I00
S'T\x8b*\xc6\xca\x83!@'
p3924
tp3925
bsg32
I0
sg33
I0
sbag3906
a(i__main__
PuffState
p3926
(dp3927
g16
g0
(g1
(I0
tp3928
g3
tp3929
Rp3930
(I1
(I1
tp3931
g22
I00
S'o$\xf0\x80E\x9c\x1b@'
p3932
tp3933
bsg17
I0
sg18
g0
(g1
(I0
tp3934
g3
tp3935
Rp3936
(I1
(I1
tp3937
g22
I00
S'tX\xb1)\xe5l(@'
p3938
tp3939
bsg28
g0
(g1
(I0
tp3940
g3
tp3941
Rp3942
(I1
(I1
tp3943
g22
I00
S'\\\x0c\xba\x06#\x04"@'
p3944
tp3945
bsg32
I0
sg33
I0
sbag3926
a(i__main__
PuffState
p3946
(dp3947
g16
g0
(g1
(I0
tp3948
g3
tp3949
Rp3950
(I1
(I1
tp3951
g22
I00
S'#\xd2\xaeKK\xe9\x1d@'
p3952
tp3953
bsg17
I0
sg18
g0
(g1
(I0
tp3954
g3
tp3955
Rp3956
(I1
(I1
tp3957
g22
I00
S'\xd3\x1f\x80B\xf8u)@'
p3958
tp3959
bsg28
g0
(g1
(I0
tp3960
g3
tp3961
Rp3962
(I1
(I1
tp3963
g22
I00
S'd\x8dIG{\x84"@'
p3964
tp3965
bsg32
I0
sg33
I0
sbag3946
a(i__main__
PuffState
p3966
(dp3967
g16
g0
(g1
(I0
tp3968
g3
tp3969
Rp3970
(I1
(I1
tp3971
g22
I00
S'\xeb\xbf6\x8b(\x1b @'
p3972
tp3973
bsg17
I0
sg18
g0
(g1
(I0
tp3974
g3
tp3975
Rp3976
(I1
(I1
tp3977
g22
I00
S'2\xe7N[\x0b\x7f*@'
p3978
tp3979
bsg28
g0
(g1
(I0
tp3980
g3
tp3981
Rp3982
(I1
(I1
tp3983
g22
I00
S'l\x0e\xd9\x87\xd3\x04#@'
p3984
tp3985
bsg32
I0
sg33
I0
sbag3966
a(i__main__
PuffState
p3986
(dp3987
g16
g0
(g1
(I0
tp3988
g3
tp3989
Rp3990
(I1
(I1
tp3991
g22
I00
S'\xc5\x16\x96p\xabA!@'
p3992
tp3993
bsg17
I0
sg18
g0
(g1
(I0
tp3994
g3
tp3995
Rp3996
(I1
(I1
tp3997
g22
I00
S'\x91\xae\x1dt\x1e\x88+@'
p3998
tp3999
bsg28
g0
(g1
(I0
tp4000
g3
tp4001
Rp4002
(I1
(I1
tp4003
g22
I00
S't\x8fh\xc8+\x85#@'
p4004
tp4005
bsg32
I0
sg33
I0
sbag3986
a(i__main__
PuffState
p4006
(dp4007
g16
g0
(g1
(I0
tp4008
g3
tp4009
Rp4010
(I1
(I1
tp4011
g22
I00
S'\x9fm\xf5U.h"@'
p4012
tp4013
bsg17
I0
sg18
g0
(g1
(I0
tp4014
g3
tp4015
Rp4016
(I1
(I1
tp4017
g22
I00
S'\xf0u\xec\x8c1\x91,@'
p4018
tp4019
bsg28
g0
(g1
(I0
tp4020
g3
tp4021
Rp4022
(I1
(I1
tp4023
g22
I00
S'|\x10\xf8\x08\x84\x05$@'
p4024
tp4025
bsg32
I0
sg33
I0
sbag4006
a(i__main__
PuffState
p4026
(dp4027
g16
g0
(g1
(I0
tp4028
g3
tp4029
Rp4030
(I1
(I1
tp4031
g22
I00
S'y\xc4T;\xb1\x8e#@'
p4032
tp4033
bsg17
I0
sg18
g0
(g1
(I0
tp4034
g3
tp4035
Rp4036
(I1
(I1
tp4037
g22
I00
S'O=\xbb\xa5D\x9a-@'
p4038
tp4039
bsg28
g0
(g1
(I0
tp4040
g3
tp4041
Rp4042
(I1
(I1
tp4043
g22
I00
S'\x84\x91\x87I\xdc\x85$@'
p4044
tp4045
bsg32
I0
sg33
I0
sbag4026
a(i__main__
PuffState
p4046
(dp4047
g16
g0
(g1
(I0
tp4048
g3
tp4049
Rp4050
(I1
(I1
tp4051
g22
I00
S'S\x1b\xb4 4\xb5$@'
p4052
tp4053
bsg17
I0
sg18
g0
(g1
(I0
tp4054
g3
tp4055
Rp4056
(I1
(I1
tp4057
g22
I00
S'\xae\x04\x8a\xbeW\xa3.@'
p4058
tp4059
bsg28
g0
(g1
(I0
tp4060
g3
tp4061
Rp4062
(I1
(I1
tp4063
g22
I00
S'\x8c\x12\x17\x8a4\x06%@'
p4064
tp4065
bsg32
I0
sg33
I0
sbag4046
a(i__main__
PuffState
p4066
(dp4067
g16
g0
(g1
(I0
tp4068
g3
tp4069
Rp4070
(I1
(I1
tp4071
g22
I00
S'-r\x13\x06\xb7\xdb%@'
p4072
tp4073
bsg17
I0
sg18
g0
(g1
(I0
tp4074
g3
tp4075
Rp4076
(I1
(I1
tp4077
g22
I00
S'\r\xccX\xd7j\xac/@'
p4078
tp4079
bsg28
g0
(g1
(I0
tp4080
g3
tp4081
Rp4082
(I1
(I1
tp4083
g22
I00
S'\x94\x93\xa6\xca\x8c\x86%@'
p4084
tp4085
bsg32
I0
sg33
I0
sbag4066
a(i__main__
PuffState
p4086
(dp4087
g16
g0
(g1
(I0
tp4088
g3
tp4089
Rp4090
(I1
(I1
tp4091
g22
I00
S"\x07\xc9r\xeb9\x02'@"
p4092
tp4093
bsg17
I0
sg18
g0
(g1
(I0
tp4094
g3
tp4095
Rp4096
(I1
(I1
tp4097
g22
I00
S'\xb6\xc9\x13\xf8\xbeZ0@'
p4098
tp4099
bsg28
g0
(g1
(I0
tp4100
g3
tp4101
Rp4102
(I1
(I1
tp4103
g22
I00
S'\x9c\x146\x0b\xe5\x06&@'
p4104
tp4105
bsg32
I0
sg33
I0
sba(i__main__
PuffState
p4106
(dp4107
g16
I0
sg17
I0
sg18
g19
(g22
S'\x00\x00\x00\x00\x00\x00\x18@'
p4108
tp4109
Rp4110
sg28
g19
(g22
S'\x00\x00\x00\x00\x00\x00\x18@'
p4111
tp4112
Rp4113
sg32
I0
sg33
I0
sba(i__main__
PuffState
p4114
(dp4115
g16
g0
(g1
(I0
tp4116
g3
tp4117
Rp4118
(I1
(I1
tp4119
g22
I00
S',\xe8\x94\xd2 \x00\xe4?'
p4120
tp4121
bsg17
I0
sg18
g0
(g1
(I0
tp4122
g3
tp4123
Rp4124
(I1
(I1
tp4125
g22
I00
S'\x96\x12a\x02>\xa1\x19@'
p4126
tp4127
bsg28
g0
(g1
(I0
tp4128
g3
tp4129
Rp4130
(I1
(I1
tp4131
g22
I00
S'\x9a\xd2CRP\xe5\x19@'
p4132
tp4133
bsg32
I0
sg33
I0
sbag4114
a(i__main__
PuffState
p4134
(dp4135
g16
g0
(g1
(I0
tp4136
g3
tp4137
Rp4138
(I1
(I1
tp4139
g22
I00
S',\xe8\x94\xd2 \x00\xf4?'
p4140
tp4141
bsg17
I0
sg18
g0
(g1
(I0
tp4142
g3
tp4143
Rp4144
(I1
(I1
tp4145
g22
I00
S',%\xc2\x04|B\x1b@'
p4146
tp4147
bsg28
g0
(g1
(I0
tp4148
g3
tp4149
Rp4150
(I1
(I1
tp4151
g22
I00
S'4\xa5\x87\xa4\xa0\xca\x1b@'
p4152
tp4153
bsg32
I0
sg33
I0
sbag4134
a(i__main__
PuffState
p4154
(dp4155
g16
g0
(g1
(I0
tp4156
g3
tp4157
Rp4158
(I1
(I1
tp4159
g22
I00
S'B\\\xdf;1\x00\xfe?'
p4160
tp4161
bsg17
I0
sg18
g0
(g1
(I0
tp4162
g3
tp4163
Rp4164
(I1
(I1
tp4165
g22
I00
S'\xc27#\x07\xba\xe3\x1c@'
p4166
tp4167
bsg28
g0
(g1
(I0
tp4168
g3
tp4169
Rp4170
(I1
(I1
tp4171
g22
I00
S'\xcew\xcb\xf6\xf0\xaf\x1d@'
p4172
tp4173
bsg32
I0
sg33
I0
sbag4154
a(i__main__
PuffState
p4174
(dp4175
g16
g0
(g1
(I0
tp4176
g3
tp4177
Rp4178
(I1
(I1
tp4179
g22
I00
S',\xe8\x94\xd2 \x00\x04@'
p4180
tp4181
bsg17
I0
sg18
g0
(g1
(I0
tp4182
g3
tp4183
Rp4184
(I1
(I1
tp4185
g22
I00
S'XJ\x84\t\xf8\x84\x1e@'
p4186
tp4187
bsg28
g0
(g1
(I0
tp4188
g3
tp4189
Rp4190
(I1
(I1
tp4191
g22
I00
S'hJ\x0fIA\x95\x1f@'
p4192
tp4193
bsg32
I0
sg33
I0
sbag4174
a(i__main__
PuffState
p4194
(dp4195
g16
g0
(g1
(I0
tp4196
g3
tp4197
Rp4198
(I1
(I1
tp4199
g22
I00
S'7":\x07)\x00\t@'
p4200
tp4201
bsg17
I0
sg18
g0
(g1
(I0
tp4202
g3
tp4203
Rp4204
(I1
(I1
tp4205
g22
I00
S'w\xae\xf2\x05\x1b\x13 @'
p4206
tp4207
bsg28
g0
(g1
(I0
tp4208
g3
tp4209
Rp4210
(I1
(I1
tp4211
g22
I00
S'\x81\x8e\xa9\xcdH\xbd @'
p4212
tp4213
bsg32
I0
sg33
I0
sbag4194
a(i__main__
PuffState
p4214
(dp4215
g16
g0
(g1
(I0
tp4216
g3
tp4217
Rp4218
(I1
(I1
tp4219
g22
I00
S'B\\\xdf;1\x00\x0e@'
p4220
tp4221
bsg17
I0
sg18
g0
(g1
(I0
tp4222
g3
tp4223
Rp4224
(I1
(I1
tp4225
g22
I00
S'\xc27#\x07\xba\xe3 @'
p4226
tp4227
bsg28
g0
(g1
(I0
tp4228
g3
tp4229
Rp4230
(I1
(I1
tp4231
g22
I00
S'\xcew\xcb\xf6\xf0\xaf!@'
p4232
tp4233
bsg32
I0
sg33
I0
sbag4214
a(i__main__
PuffState
p4234
(dp4235
g16
g0
(g1
(I0
tp4236
g3
tp4237
Rp4238
(I1
(I1
tp4239
g22
I00
S'&KB\xb8\x1c\x80\x11@'
p4240
tp4241
bsg17
I0
sg18
g0
(g1
(I0
tp4242
g3
tp4243
Rp4244
(I1
(I1
tp4245
g22
I00
S'\r\xc1S\x08Y\xb4!@'
p4246
tp4247
bsg28
g0
(g1
(I0
tp4248
g3
tp4249
Rp4250
(I1
(I1
tp4251
g22
I00
S'\x1ba\xed\x1f\x99\xa2"@'
p4252
tp4253
bsg32
I0
sg33
I0
sbag4234
a(i__main__
PuffState
p4254
(dp4255
g16
g0
(g1
(I0
tp4256
g3
tp4257
Rp4258
(I1
(I1
tp4259
g22
I00
S',\xe8\x94\xd2 \x00\x14@'
p4260
tp4261
bsg17
I0
sg18
g0
(g1
(I0
tp4262
g3
tp4263
Rp4264
(I1
(I1
tp4265
g22
I00
S'XJ\x84\t\xf8\x84"@'
p4266
tp4267
bsg28
g0
(g1
(I0
tp4268
g3
tp4269
Rp4270
(I1
(I1
tp4271
g22
I00
S'hJ\x0fIA\x95#@'
p4272
tp4273
bsg32
I0
sg33
I0
sbag4254
a(i__main__
PuffState
p4274
(dp4275
g16
g0
(g1
(I0
tp4276
g3
tp4277
Rp4278
(I1
(I1
tp4279
g22
I00
S'2\x85\xe7\xec$\x80\x16@'
p4280
tp4281
bsg17
I0
sg18
g0
(g1
(I0
tp4282
g3
tp4283
Rp4284
(I1
(I1
tp4285
g22
I00
S'\xa3\xd3\xb4\n\x97U#@'
p4286
tp4287
bsg28
g0
(g1
(I0
tp4288
g3
tp4289
Rp4290
(I1
(I1
tp4291
g22
I00
S'\xb531r\xe9\x87$@'
p4292
tp4293
bsg32
I0
sg33
I0
sbag4274
a(i__main__
PuffState
p4294
(dp4295
g16
g0
(g1
(I0
tp4296
g3
tp4297
Rp4298
(I1
(I1
tp4299
g22
I00
S'8":\x07)\x00\x19@'
p4300
tp4301
bsg17
I0
sg18
g0
(g1
(I0
tp4302
g3
tp4303
Rp4304
(I1
(I1
tp4305
g22
I00
S'\xee\\\xe5\x0b6&$@'
p4306
tp4307
bsg28
g0
(g1
(I0
tp4308
g3
tp4309
Rp4310
(I1
(I1
tp4311
g22
I00
S'\x02\x1dS\x9b\x91z%@'
p4312
tp4313
bsg32
I0
sg33
I0
sbag4294
a(i__main__
PuffState
p4314
(dp4315
g16
g0
(g1
(I0
tp4316
g3
tp4317
Rp4318
(I1
(I1
tp4319
g22
I00
S'>\xbf\x8c!-\x80\x1b@'
p4320
tp4321
bsg17
I0
sg18
g0
(g1
(I0
tp4322
g3
tp4323
Rp4324
(I1
(I1
tp4325
g22
I00
S'9\xe6\x15\r\xd5\xf6$@'
p4326
tp4327
bsg28
g0
(g1
(I0
tp4328
g3
tp4329
Rp4330
(I1
(I1
tp4331
g22
I00
S'O\x06u\xc49m&@'
p4332
tp4333
bsg32
I0
sg33
I0
sbag4314
a(i__main__
PuffState
p4334
(dp4335
g16
g0
(g1
(I0
tp4336
g3
tp4337
Rp4338
(I1
(I1
tp4339
g22
I00
S'D\\\xdf;1\x00\x1e@'
p4340
tp4341
bsg17
I0
sg18
g0
(g1
(I0
tp4342
g3
tp4343
Rp4344
(I1
(I1
tp4345
g22
I00
S'\x84oF\x0et\xc7%@'
p4346
tp4347
bsg28
g0
(g1
(I0
tp4348
g3
tp4349
Rp4350
(I1
(I1
tp4351
g22
I00
S"\x9c\xef\x96\xed\xe1_'@"
p4352
tp4353
bsg32
I0
sg33
I0
sbag4334
a(i__main__
PuffState
p4354
(dp4355
g16
g0
(g1
(I0
tp4356
g3
tp4357
Rp4358
(I1
(I1
tp4359
g22
I00
S'\xa5\xfc\x18\xab\x1a@ @'
p4360
tp4361
bsg17
I0
sg18
g0
(g1
(I0
tp4362
g3
tp4363
Rp4364
(I1
(I1
tp4365
g22
I00
S'\xcf\xf8v\x0f\x13\x98&@'
p4366
tp4367
bsg28
g0
(g1
(I0
tp4368
g3
tp4369
Rp4370
(I1
(I1
tp4371
g22
I00
S'\xe9\xd8\xb8\x16\x8aR(@'
p4372
tp4373
bsg32
I0
sg33
I0
sbag4354
a(i__main__
PuffState
p4374
(dp4375
g16
g0
(g1
(I0
tp4376
g3
tp4377
Rp4378
(I1
(I1
tp4379
g22
I00
S'(KB\xb8\x1c\x80!@'
p4380
tp4381
bsg17
I0
sg18
g0
(g1
(I0
tp4382
g3
tp4383
Rp4384
(I1
(I1
tp4385
g22
I00
S"\x1a\x82\xa7\x10\xb2h'@"
p4386
tp4387
bsg28
g0
(g1
(I0
tp4388
g3
tp4389
Rp4390
(I1
(I1
tp4391
g22
I00
S'6\xc2\xda?2E)@'
p4392
tp4393
bsg32
I0
sg33
I0
sbag4374
a(i__main__
PuffState
p4394
(dp4395
g16
g0
(g1
(I0
tp4396
g3
tp4397
Rp4398
(I1
(I1
tp4399
g22
I00
S'\xab\x99k\xc5\x1e\xc0"@'
p4400
tp4401
bsg17
I0
sg18
g0
(g1
(I0
tp4402
g3
tp4403
Rp4404
(I1
(I1
tp4405
g22
I00
S'e\x0b\xd8\x11Q9(@'
p4406
tp4407
bsg28
g0
(g1
(I0
tp4408
g3
tp4409
Rp4410
(I1
(I1
tp4411
g22
I00
S'\x83\xab\xfch\xda7*@'
p4412
tp4413
bsg32
I0
sg33
I0
sbag4394
a(i__main__
PuffState
p4414
(dp4415
g16
g0
(g1
(I0
tp4416
g3
tp4417
Rp4418
(I1
(I1
tp4419
g22
I00
S'.\xe8\x94\xd2 \x00$@'
p4420
tp4421
bsg17
I0
sg18
g0
(g1
(I0
tp4422
g3
tp4423
Rp4424
(I1
(I1
tp4425
g22
I00
S'\xb0\x94\x08\x13\xf0\t)@'
p4426
tp4427
bsg28
g0
(g1
(I0
tp4428
g3
tp4429
Rp4430
(I1
(I1
tp4431
g22
I00
S'\xd0\x94\x1e\x92\x82*+@'
p4432
tp4433
bsg32
I0
sg33
I0
sbag4414
a(i__main__
PuffState
p4434
(dp4435
g16
g0
(g1
(I0
tp4436
g3
tp4437
Rp4438
(I1
(I1
tp4439
g22
I00
S'\xb16\xbe\xdf"@%@'
p4440
tp4441
bsg17
I0
sg18
g0
(g1
(I0
tp4442
g3
tp4443
Rp4444
(I1
(I1
tp4445
g22
I00
S'\xfb\x1d9\x14\x8f\xda)@'
p4446
tp4447
bsg28
g0
(g1
(I0
tp4448
g3
tp4449
Rp4450
(I1
(I1
tp4451
g22
I00
S'\x1d~@\xbb*\x1d,@'
p4452
tp4453
bsg32
I0
sg33
I0
sbag4434
a(i__main__
PuffState
p4454
(dp4455
g16
g0
(g1
(I0
tp4456
g3
tp4457
Rp4458
(I1
(I1
tp4459
g22
I00
S'4\x85\xe7\xec$\x80&@'
p4460
tp4461
bsg17
I0
sg18
g0
(g1
(I0
tp4462
g3
tp4463
Rp4464
(I1
(I1
tp4465
g22
I00
S'F\xa7i\x15.\xab*@'
p4466
tp4467
bsg28
g0
(g1
(I0
tp4468
g3
tp4469
Rp4470
(I1
(I1
tp4471
g22
I00
S'jgb\xe4\xd2\x0f-@'
p4472
tp4473
bsg32
I0
sg33
I0
sbag4454
a(i__main__
PuffState
p4474
(dp4475
g16
g0
(g1
(I0
tp4476
g3
tp4477
Rp4478
(I1
(I1
tp4479
g22
I00
S"\xb7\xd3\x10\xfa&\xc0'@"
p4480
tp4481
bsg17
I0
sg18
g0
(g1
(I0
tp4482
g3
tp4483
Rp4484
(I1
(I1
tp4485
g22
I00
S'\x910\x9a\x16\xcd{+@'
p4486
tp4487
bsg28
g0
(g1
(I0
tp4488
g3
tp4489
Rp4490
(I1
(I1
tp4491
g22
I00
S'\xb7P\x84\r{\x02.@'
p4492
tp4493
bsg32
I0
sg33
I0
sbag4474
a(i__main__
PuffState
p4494
(dp4495
g16
g0
(g1
(I0
tp4496
g3
tp4497
Rp4498
(I1
(I1
tp4499
g22
I00
S':":\x07)\x00)@'
p4500
tp4501
bsg17
I0
sg18
g0
(g1
(I0
tp4502
g3
tp4503
Rp4504
(I1
(I1
tp4505
g22
I00
S'\xdc\xb9\xca\x17lL,@'
p4506
tp4507
bsg28
g0
(g1
(I0
tp4508
g3
tp4509
Rp4510
(I1
(I1
tp4511
g22
I00
S'\x04:\xa66#\xf5.@'
p4512
tp4513
bsg32
I0
sg33
I0
sba(i__main__
PuffState
p4514
(dp4515
g16
I0
sg17
I0
sg18
g19
(g22
S'\x00\x00\x00\x00\x00\x00\x18@'
p4516
tp4517
Rp4518
sg28
g19
(g22
S'\x00\x00\x00\x00\x00\x00\x18@'
p4519
tp4520
Rp4521
sg32
I0
sg33
I0
sba(i__main__
PuffState
p4522
(dp4523
g16
g0
(g1
(I0
tp4524
g3
tp4525
Rp4526
(I1
(I1
tp4527
g22
I00
S"E\x17\x00\xe5'\x1f\xe2?"
p4528
tp4529
bsg17
I0
sg18
g0
(g1
(I0
tp4530
g3
tp4531
Rp4532
(I1
(I1
tp4533
g22
I00
S'\xbaf\xad\xf3\xccR\x19@'
p4534
tp4535
bsg28
g0
(g1
(I0
tp4536
g3
tp4537
Rp4538
(I1
(I1
tp4539
g22
I00
S'7:\xce\r\xa1\xd6\x19@'
p4540
tp4541
bsg32
I0
sg33
I0
sbag4522
a(i__main__
PuffState
p4542
(dp4543
g16
g0
(g1
(I0
tp4544
g3
tp4545
Rp4546
(I1
(I1
tp4547
g22
I00
S"E\x17\x00\xe5'\x1f\xf2?"
p4548
tp4549
bsg17
I0
sg18
g0
(g1
(I0
tp4550
g3
tp4551
Rp4552
(I1
(I1
tp4553
g22
I00
S't\xcdZ\xe7\x99\xa5\x1a@'
p4554
tp4555
bsg28
g0
(g1
(I0
tp4556
g3
tp4557
Rp4558
(I1
(I1
tp4559
g22
I00
S'nt\x9c\x1bB\xad\x1b@'
p4560
tp4561
bsg32
I0
sg33
I0
sbag4542
a(i__main__
PuffState
p4562
(dp4563
g16
g0
(g1
(I0
tp4564
g3
tp4565
Rp4566
(I1
(I1
tp4567
g22
I00
S'\xe8"\x80\xd7\xbb.\xfb?'
p4568
tp4569
bsg17
I0
sg18
g0
(g1
(I0
tp4570
g3
tp4571
Rp4572
(I1
(I1
tp4573
g22
I00
S'.4\x08\xdbf\xf8\x1b@'
p4574
tp4575
bsg28
g0
(g1
(I0
tp4576
g3
tp4577
Rp4578
(I1
(I1
tp4579
g22
I00
S'\xa5\xaej)\xe3\x83\x1d@'
p4580
tp4581
bsg32
I0
sg33
I0
sbag4562
a(i__main__
PuffState
p4582
(dp4583
g16
g0
(g1
(I0
tp4584
g3
tp4585
Rp4586
(I1
(I1
tp4587
g22
I00
S"E\x17\x00\xe5'\x1f\x02@"
p4588
tp4589
bsg17
I0
sg18
g0
(g1
(I0
tp4590
g3
tp4591
Rp4592
(I1
(I1
tp4593
g22
I00
S'\xe8\x9a\xb5\xce3K\x1d@'
p4594
tp4595
bsg28
g0
(g1
(I0
tp4596
g3
tp4597
Rp4598
(I1
(I1
tp4599
g22
I00
S'\xdc\xe887\x84Z\x1f@'
p4600
tp4601
bsg32
I0
sg33
I0
sbag4582
a(i__main__
PuffState
p4602
(dp4603
g16
g0
(g1
(I0
tp4604
g3
tp4605
Rp4606
(I1
(I1
tp4607
g22
I00
S'\x16\x1d@\xde\xf1\xa6\x06@'
p4608
tp4609
bsg17
I0
sg18
g0
(g1
(I0
tp4610
g3
tp4611
Rp4612
(I1
(I1
tp4613
g22
I00
S'\xa2\x01c\xc2\x00\x9e\x1e@'
p4614
tp4615
bsg28
g0
(g1
(I0
tp4616
g3
tp4617
Rp4618
(I1
(I1
tp4619
g22
I00
S'\x8a\x91\x83\xa2\x92\x98 @'
p4620
tp4621
bsg32
I0
sg33
I0
sbag4602
a(i__main__
PuffState
p4622
(dp4623
g16
g0
(g1
(I0
tp4624
g3
tp4625
Rp4626
(I1
(I1
tp4627
g22
I00
S'\xe7"\x80\xd7\xbb.\x0b@'
p4628
tp4629
bsg17
I0
sg18
g0
(g1
(I0
tp4630
g3
tp4631
Rp4632
(I1
(I1
tp4633
g22
I00
S'\\h\x10\xb6\xcd\xf0\x1f@'
p4634
tp4635
bsg28
g0
(g1
(I0
tp4636
g3
tp4637
Rp4638
(I1
(I1
tp4639
g22
I00
S'\xa6\xaej)\xe3\x83!@'
p4640
tp4641
bsg32
I0
sg33
I0
sbag4622
a(i__main__
PuffState
p4642
(dp4643
g16
g0
(g1
(I0
tp4644
g3
tp4645
Rp4646
(I1
(I1
tp4647
g22
I00
S'\xb8(\xc0\xd0\x85\xb6\x0f@'
p4648
tp4649
bsg17
I0
sg18
g0
(g1
(I0
tp4650
g3
tp4651
Rp4652
(I1
(I1
tp4653
g22
I00
S'\x8b\xe7\xdeT\xcd\xa1 @'
p4654
tp4655
bsg28
g0
(g1
(I0
tp4656
g3
tp4657
Rp4658
(I1
(I1
tp4659
g22
I00
S'\xc2\xcbQ\xb03o"@'
p4660
tp4661
bsg32
I0
sg33
I0
sbag4642
a(i__main__
PuffState
p4662
(dp4663
g16
g0
(g1
(I0
tp4664
g3
tp4665
Rp4666
(I1
(I1
tp4667
g22
I00
S"E\x17\x00\xe5'\x1f\x12@"
p4668
tp4669
bsg17
I0
sg18
g0
(g1
(I0
tp4670
g3
tp4671
Rp4672
(I1
(I1
tp4673
g22
I00
S'\xe8\x9a\xb5\xce3K!@'
p4674
tp4675
bsg28
g0
(g1
(I0
tp4676
g3
tp4677
Rp4678
(I1
(I1
tp4679
g22
I00
S'\xde\xe887\x84Z#@'
p4680
tp4681
bsg32
I0
sg33
I0
sbag4662
a(i__main__
PuffState
p4682
(dp4683
g16
g0
(g1
(I0
tp4684
g3
tp4685
Rp4686
(I1
(I1
tp4687
g22
I00
S'.\x1a\xa0\xe1\x0cc\x14@'
p4688
tp4689
bsg17
I0
sg18
g0
(g1
(I0
tp4690
g3
tp4691
Rp4692
(I1
(I1
tp4693
g22
I00
S'EN\x8cH\x9a\xf4!@'
p4694
tp4695
bsg28
g0
(g1
(I0
tp4696
g3
tp4697
Rp4698
(I1
(I1
tp4699
g22
I00
S'\xfa\x05 \xbe\xd4E$@'
p4700
tp4701
bsg32
I0
sg33
I0
sbag4682
a(i__main__
PuffState
p4702
(dp4703
g16
g0
(g1
(I0
tp4704
g3
tp4705
Rp4706
(I1
(I1
tp4707
g22
I00
S'\x17\x1d@\xde\xf1\xa6\x16@'
p4708
tp4709
bsg17
I0
sg18
g0
(g1
(I0
tp4710
g3
tp4711
Rp4712
(I1
(I1
tp4713
g22
I00
S'\xa2\x01c\xc2\x00\x9e"@'
p4714
tp4715
bsg28
g0
(g1
(I0
tp4716
g3
tp4717
Rp4718
(I1
(I1
tp4719
g22
I00
S'\x16#\x07E%1%@'
p4720
tp4721
bsg32
I0
sg33
I0
sbag4702
a(i__main__
PuffState
p4722
(dp4723
g16
g0
(g1
(I0
tp4724
g3
tp4725
Rp4726
(I1
(I1
tp4727
g22
I00
S'\x00 \xe0\xda\xd6\xea\x18@'
p4728
tp4729
bsg17
I0
sg18
g0
(g1
(I0
tp4730
g3
tp4731
Rp4732
(I1
(I1
tp4733
g22
I00
S'\xff\xb49<gG#@'
p4734
tp4735
bsg28
g0
(g1
(I0
tp4736
g3
tp4737
Rp4738
(I1
(I1
tp4739
g22
I00
S'2@\xee\xcbu\x1c&@'
p4740
tp4741
bsg32
I0
sg33
I0
sbag4722
a(i__main__
PuffState
p4742
(dp4743
g16
g0
(g1
(I0
tp4744
g3
tp4745
Rp4746
(I1
(I1
tp4747
g22
I00
S'\xe9"\x80\xd7\xbb.\x1b@'
p4748
tp4749
bsg17
I0
sg18
g0
(g1
(I0
tp4750
g3
tp4751
Rp4752
(I1
(I1
tp4753
g22
I00
S'\\h\x10\xb6\xcd\xf0#@'
p4754
tp4755
bsg28
g0
(g1
(I0
tp4756
g3
tp4757
Rp4758
(I1
(I1
tp4759
g22
I00
S"N]\xd5R\xc6\x07'@"
p4760
tp4761
bsg32
I0
sg33
I0
sbag4742
a(i__main__
PuffState
p4762
(dp4763
g16
g0
(g1
(I0
tp4764
g3
tp4765
Rp4766
(I1
(I1
tp4767
g22
I00
S'\xd2% \xd4\xa0r\x1d@'
p4768
tp4769
bsg17
I0
sg18
g0
(g1
(I0
tp4770
g3
tp4771
Rp4772
(I1
(I1
tp4773
g22
I00
S'\xb9\x1b\xe7/4\x9a$@'
p4774
tp4775
bsg28
g0
(g1
(I0
tp4776
g3
tp4777
Rp4778
(I1
(I1
tp4779
g22
I00
S"jz\xbc\xd9\x16\xf3'@"
p4780
tp4781
bsg32
I0
sg33
I0
sbag4762
a(i__main__
PuffState
p4782
(dp4783
g16
g0
(g1
(I0
tp4784
g3
tp4785
Rp4786
(I1
(I1
tp4787
g22
I00
S'\xbb(\xc0\xd0\x85\xb6\x1f@'
p4788
tp4789
bsg17
I0
sg18
g0
(g1
(I0
tp4790
g3
tp4791
Rp4792
(I1
(I1
tp4793
g22
I00
S'\x16\xcf\xbd\xa9\x9aC%@'
p4794
tp4795
bsg28
g0
(g1
(I0
tp4796
g3
tp4797
Rp4798
(I1
(I1
tp4799
g22
I00
S'\x86\x97\xa3`g\xde(@'
p4800
tp4801
bsg32
I0
sg33
I0
sbag4782
a(i__main__
PuffState
p4802
(dp4803
g16
g0
(g1
(I0
tp4804
g3
tp4805
Rp4806
(I1
(I1
tp4807
g22
I00
S'\xd2\x15\xb0f5\xfd @'
p4808
tp4809
bsg17
I0
sg18
g0
(g1
(I0
tp4810
g3
tp4811
Rp4812
(I1
(I1
tp4813
g22
I00
S's\x82\x94#\x01\xed%@'
p4814
tp4815
bsg28
g0
(g1
(I0
tp4816
g3
tp4817
Rp4818
(I1
(I1
tp4819
g22
I00
S'\xa2\xb4\x8a\xe7\xb7\xc9)@'
p4820
tp4821
bsg32
I0
sg33
I0
sbag4802
a(i__main__
PuffState
p4822
(dp4823
g16
g0
(g1
(I0
tp4824
g3
tp4825
Rp4826
(I1
(I1
tp4827
g22
I00
S'F\x17\x00\xe5\'\x1f"@'
p4828
tp4829
bsg17
I0
sg18
g0
(g1
(I0
tp4830
g3
tp4831
Rp4832
(I1
(I1
tp4833
g22
I00
S'\xd05k\x9dg\x96&@'
p4834
tp4835
bsg28
g0
(g1
(I0
tp4836
g3
tp4837
Rp4838
(I1
(I1
tp4839
g22
I00
S'\xbe\xd1qn\x08\xb5*@'
p4840
tp4841
bsg32
I0
sg33
I0
sbag4822
a(i__main__
PuffState
p4842
(dp4843
g16
g0
(g1
(I0
tp4844
g3
tp4845
Rp4846
(I1
(I1
tp4847
g22
I00
S'\xba\x18Pc\x1aA#@'
p4848
tp4849
bsg17
I0
sg18
g0
(g1
(I0
tp4850
g3
tp4851
Rp4852
(I1
(I1
tp4853
g22
I00
S"-\xe9A\x17\xce?'@"
p4854
tp4855
bsg28
g0
(g1
(I0
tp4856
g3
tp4857
Rp4858
(I1
(I1
tp4859
g22
I00
S'\xda\xeeX\xf5X\xa0+@'
p4860
tp4861
bsg32
I0
sg33
I0
sbag4842
a(i__main__
PuffState
p4862
(dp4863
g16
g0
(g1
(I0
tp4864
g3
tp4865
Rp4866
(I1
(I1
tp4867
g22
I00
S'.\x1a\xa0\xe1\x0cc$@'
p4868
tp4869
bsg17
I0
sg18
g0
(g1
(I0
tp4870
g3
tp4871
Rp4872
(I1
(I1
tp4873
g22
I00
S"\x8a\x9c\x18\x914\xe9'@"
p4874
tp4875
bsg28
g0
(g1
(I0
tp4876
g3
tp4877
Rp4878
(I1
(I1
tp4879
g22
I00
S'\xf6\x0b@|\xa9\x8b,@'
p4880
tp4881
bsg32
I0
sg33
I0
sbag4862
a(i__main__
PuffState
p4882
(dp4883
g16
g0
(g1
(I0
tp4884
g3
tp4885
Rp4886
(I1
(I1
tp4887
g22
I00
S'\xa2\x1b\xf0_\xff\x84%@'
p4888
tp4889
bsg17
I0
sg18
g0
(g1
(I0
tp4890
g3
tp4891
Rp4892
(I1
(I1
tp4893
g22
I00
S'\xe7O\xef\n\x9b\x92(@'
p4894
tp4895
bsg28
g0
(g1
(I0
tp4896
g3
tp4897
Rp4898
(I1
(I1
tp4899
g22
I00
S"\x12)'\x03\xfav-@"
p4900
tp4901
bsg32
I0
sg33
I0
sbag4882
a(i__main__
PuffState
p4902
(dp4903
g16
g0
(g1
(I0
tp4904
g3
tp4905
Rp4906
(I1
(I1
tp4907
g22
I00
S'\x16\x1d@\xde\xf1\xa6&@'
p4908
tp4909
bsg17
I0
sg18
g0
(g1
(I0
tp4910
g3
tp4911
Rp4912
(I1
(I1
tp4913
g22
I00
S'D\x03\xc6\x84\x01<)@'
p4914
tp4915
bsg28
g0
(g1
(I0
tp4916
g3
tp4917
Rp4918
(I1
(I1
tp4919
g22
I00
S'.F\x0e\x8aJb.@'
p4920
tp4921
bsg32
I0
sg33
I0
sba(i__main__
PuffState
p4922
(dp4923
g16
I0
sg17
I0
sg18
g19
(g22
S'\x00\x00\x00\x00\x00\x00\x18@'
p4924
tp4925
Rp4926
sg28
g19
(g22
S'\x00\x00\x00\x00\x00\x00\x18@'
p4927
tp4928
Rp4929
sg32
I0
sg33
I0
sba(i__main__
PuffState
p4930
(dp4931
g16
g0
(g1
(I0
tp4932
g3
tp4933
Rp4934
(I1
(I1
tp4935
g22
I00
S'\xd7\xdf\x1b\xec=\xd7\xdf?'
p4936
tp4937
bsg17
I0
sg18
g0
(g1
(I0
tp4938
g3
tp4939
Rp4940
(I1
(I1
tp4941
g22
I00
S'\x87\xda\xb5\x99\xd9\xaa\x18@'
p4942
tp4943
bsg28
g0
(g1
(I0
tp4944
g3
tp4945
Rp4946
(I1
(I1
tp4947
g22
I00
S'\r\x94\xdeC\xf3\xdf\x19@'
p4948
tp4949
bsg32
I0
sg33
I0
sbag4930
a(i__main__
PuffState
p4950
(dp4951
g16
g0
(g1
(I0
tp4952
g3
tp4953
Rp4954
(I1
(I1
tp4955
g22
I00
S'\xd7\xdf\x1b\xec=\xd7\xef?'
p4956
tp4957
bsg17
I0
sg18
g0
(g1
(I0
tp4958
g3
tp4959
Rp4960
(I1
(I1
tp4961
g22
I00
S'\x0e\xb5k3\xb3U\x19@'
p4962
tp4963
bsg28
g0
(g1
(I0
tp4964
g3
tp4965
Rp4966
(I1
(I1
tp4967
g22
I00
S'\x1a(\xbd\x87\xe6\xbf\x1b@'
p4968
tp4969
bsg32
I0
sg33
I0
sbag4950
a(i__main__
PuffState
p4970
(dp4971
g16
g0
(g1
(I0
tp4972
g3
tp4973
Rp4974
(I1
(I1
tp4975
g22
I00
S'\xe1\xe7\x14qn\xe1\xf7?'
p4976
tp4977
bsg17
I0
sg18
g0
(g1
(I0
tp4978
g3
tp4979
Rp4980
(I1
(I1
tp4981
g22
I00
S'\x95\x8f!\xcd\x8c\x00\x1a@'
p4982
tp4983
bsg28
g0
(g1
(I0
tp4984
g3
tp4985
Rp4986
(I1
(I1
tp4987
g22
I00
S"'\xbc\x9b\xcb\xd9\x9f\x1d@"
p4988
tp4989
bsg32
I0
sg33
I0
sbag4970
a(i__main__
PuffState
p4990
(dp4991
g16
g0
(g1
(I0
tp4992
g3
tp4993
Rp4994
(I1
(I1
tp4995
g22
I00
S'\xd7\xdf\x1b\xec=\xd7\xff?'
p4996
tp4997
bsg17
I0
sg18
g0
(g1
(I0
tp4998
g3
tp4999
Rp5000
(I1
(I1
tp5001
g22
I00
S'\x1cj\xd7ff\xab\x1a@'
p5002
tp5003
bsg28
g0
(g1
(I0
tp5004
g3
tp5005
Rp5006
(I1
(I1
tp5007
g22
I00
S'4Pz\x0f\xcd\x7f\x1f@'
p5008
tp5009
bsg32
I0
sg33
I0
sbag4990
a(i__main__
PuffState
p5010
(dp5011
g16
g0
(g1
(I0
tp5012
g3
tp5013
Rp5014
(I1
(I1
tp5015
g22
I00
S'\xe6k\x91\xb3\x86\xe6\x03@'
p5016
tp5017
bsg17
I0
sg18
g0
(g1
(I0
tp5018
g3
tp5019
Rp5020
(I1
(I1
tp5021
g22
I00
S'\xa3D\x8d\x00@V\x1b@'
p5022
tp5023
bsg28
g0
(g1
(I0
tp5024
g3
tp5025
Rp5026
(I1
(I1
tp5027
g22
I00
S'!r\xac)\xe0\xaf @'
p5028
tp5029
bsg32
I0
sg33
I0
sbag5010
a(i__main__
PuffState
p5030
(dp5031
g16
g0
(g1
(I0
tp5032
g3
tp5033
Rp5034
(I1
(I1
tp5035
g22
I00
S'\xe1\xe7\x14qn\xe1\x07@'
p5036
tp5037
bsg17
I0
sg18
g0
(g1
(I0
tp5038
g3
tp5039
Rp5040
(I1
(I1
tp5041
g22
I00
S'*\x1fC\x9a\x19\x01\x1c@'
p5042
tp5043
bsg28
g0
(g1
(I0
tp5044
g3
tp5045
Rp5046
(I1
(I1
tp5047
g22
I00
S'(\xbc\x9b\xcb\xd9\x9f!@'
p5048
tp5049
bsg32
I0
sg33
I0
sbag5030
a(i__main__
PuffState
p5050
(dp5051
g16
g0
(g1
(I0
tp5052
g3
tp5053
Rp5054
(I1
(I1
tp5055
g22
I00
S'\xdcc\x98.V\xdc\x0b@'
p5056
tp5057
bsg17
I0
sg18
g0
(g1
(I0
tp5058
g3
tp5059
Rp5060
(I1
(I1
tp5061
g22
I00
S'\xb1\xf9\xf83\xf3\xab\x1c@'
p5062
tp5063
bsg28
g0
(g1
(I0
tp5064
g3
tp5065
Rp5066
(I1
(I1
tp5067
g22
I00
S'/\x06\x8bm\xd3\x8f"@'
p5068
tp5069
bsg32
I0
sg33
I0
sbag5050
a(i__main__
PuffState
p5070
(dp5071
g16
g0
(g1
(I0
tp5072
g3
tp5073
Rp5074
(I1
(I1
tp5075
g22
I00
S'\xd7\xdf\x1b\xec=\xd7\x0f@'
p5076
tp5077
bsg17
I0
sg18
g0
(g1
(I0
tp5078
g3
tp5079
Rp5080
(I1
(I1
tp5081
g22
I00
S'8\xd4\xae\xcd\xccV\x1d@'
p5082
tp5083
bsg28
g0
(g1
(I0
tp5084
g3
tp5085
Rp5086
(I1
(I1
tp5087
g22
I00
S'6Pz\x0f\xcd\x7f#@'
p5088
tp5089
bsg32
I0
sg33
I0
sbag5070
a(i__main__
PuffState
p5090
(dp5091
g16
g0
(g1
(I0
tp5092
g3
tp5093
Rp5094
(I1
(I1
tp5095
g22
I00
S'\xe9\xad\xcf\xd4\x12\xe9\x11@'
p5096
tp5097
bsg17
I0
sg18
g0
(g1
(I0
tp5098
g3
tp5099
Rp5100
(I1
(I1
tp5101
g22
I00
S'\xbf\xaedg\xa6\x01\x1e@'
p5102
tp5103
bsg28
g0
(g1
(I0
tp5104
g3
tp5105
Rp5106
(I1
(I1
tp5107
g22
I00
S'=\x9ai\xb1\xc6o$@'
p5108
tp5109
bsg32
I0
sg33
I0
sbag5090
a(i__main__
PuffState
p5110
(dp5111
g16
g0
(g1
(I0
tp5112
g3
tp5113
Rp5114
(I1
(I1
tp5115
g22
I00
S'\xe6k\x91\xb3\x86\xe6\x13@'
p5116
tp5117
bsg17
I0
sg18
g0
(g1
(I0
tp5118
g3
tp5119
Rp5120
(I1
(I1
tp5121
g22
I00
S'F\x89\x1a\x01\x80\xac\x1e@'
p5122
tp5123
bsg28
g0
(g1
(I0
tp5124
g3
tp5125
Rp5126
(I1
(I1
tp5127
g22
I00
S'D\xe4XS\xc0_%@'
p5128
tp5129
bsg32
I0
sg33
I0
sbag5110
a(i__main__
PuffState
p5130
(dp5131
g16
g0
(g1
(I0
tp5132
g3
tp5133
Rp5134
(I1
(I1
tp5135
g22
I00
S'\xe3)S\x92\xfa\xe3\x15@'
p5136
tp5137
bsg17
I0
sg18
g0
(g1
(I0
tp5138
g3
tp5139
Rp5140
(I1
(I1
tp5141
g22
I00
S'\xcdc\xd0\x9aYW\x1f@'
p5142
tp5143
bsg28
g0
(g1
(I0
tp5144
g3
tp5145
Rp5146
(I1
(I1
tp5147
g22
I00
S'K.H\xf5\xb9O&@'
p5148
tp5149
bsg32
I0
sg33
I0
sbag5130
a(i__main__
PuffState
p5150
(dp5151
g16
g0
(g1
(I0
tp5152
g3
tp5153
Rp5154
(I1
(I1
tp5155
g22
I00
S'\xe0\xe7\x14qn\xe1\x17@'
p5156
tp5157
bsg17
I0
sg18
g0
(g1
(I0
tp5158
g3
tp5159
Rp5160
(I1
(I1
tp5161
g22
I00
S'*\x1fC\x9a\x19\x01 @'
p5162
tp5163
bsg28
g0
(g1
(I0
tp5164
g3
tp5165
Rp5166
(I1
(I1
tp5167
g22
I00
S"Rx7\x97\xb3?'@"
p5168
tp5169
bsg32
I0
sg33
I0
sbag5150
a(i__main__
PuffState
p5170
(dp5171
g16
g0
(g1
(I0
tp5172
g3
tp5173
Rp5174
(I1
(I1
tp5175
g22
I00
S'\xdd\xa5\xd6O\xe2\xde\x19@'
p5176
tp5177
bsg17
I0
sg18
g0
(g1
(I0
tp5178
g3
tp5179
Rp5180
(I1
(I1
tp5181
g22
I00
S'n\x0c\x1eg\x86V @'
p5182
tp5183
bsg28
g0
(g1
(I0
tp5184
g3
tp5185
Rp5186
(I1
(I1
tp5187
g22
I00
S'Y\xc2&9\xad/(@'
p5188
tp5189
bsg32
I0
sg33
I0
sbag5170
a(i__main__
PuffState
p5190
(dp5191
g16
g0
(g1
(I0
tp5192
g3
tp5193
Rp5194
(I1
(I1
tp5195
g22
I00
S'\xdac\x98.V\xdc\x1b@'
p5196
tp5197
bsg17
I0
sg18
g0
(g1
(I0
tp5198
g3
tp5199
Rp5200
(I1
(I1
tp5201
g22
I00
S'\xb2\xf9\xf83\xf3\xab @'
p5202
tp5203
bsg28
g0
(g1
(I0
tp5204
g3
tp5205
Rp5206
(I1
(I1
tp5207
g22
I00
S'`\x0c\x16\xdb\xa6\x1f)@'
p5208
tp5209
bsg32
I0
sg33
I0
sbag5190
a(i__main__
PuffState
p5210
(dp5211
g16
g0
(g1
(I0
tp5212
g3
tp5213
Rp5214
(I1
(I1
tp5215
g22
I00
S'\xd7!Z\r\xca\xd9\x1d@'
p5216
tp5217
bsg17
I0
sg18
g0
(g1
(I0
tp5218
g3
tp5219
Rp5220
(I1
(I1
tp5221
g22
I00
S'\xf6\xe6\xd3\x00`\x01!@'
p5222
tp5223
bsg28
g0
(g1
(I0
tp5224
g3
tp5225
Rp5226
(I1
(I1
tp5227
g22
I00
S'gV\x05}\xa0\x0f*@'
p5228
tp5229
bsg32
I0
sg33
I0
sbag5210
a(i__main__
PuffState
p5230
(dp5231
g16
g0
(g1
(I0
tp5232
g3
tp5233
Rp5234
(I1
(I1
tp5235
g22
I00
S'\xd4\xdf\x1b\xec=\xd7\x1f@'
p5236
tp5237
bsg17
I0
sg18
g0
(g1
(I0
tp5238
g3
tp5239
Rp5240
(I1
(I1
tp5241
g22
I00
S':\xd4\xae\xcd\xccV!@'
p5242
tp5243
bsg28
g0
(g1
(I0
tp5244
g3
tp5245
Rp5246
(I1
(I1
tp5247
g22
I00
S'n\xa0\xf4\x1e\x9a\xff*@'
p5248
tp5249
bsg32
I0
sg33
I0
sbag5230
a(i__main__
PuffState
p5250
(dp5251
g16
g0
(g1
(I0
tp5252
g3
tp5253
Rp5254
(I1
(I1
tp5255
g22
I00
S'\xe9\xcen\xe5X\xea @'
p5256
tp5257
bsg17
I0
sg18
g0
(g1
(I0
tp5258
g3
tp5259
Rp5260
(I1
(I1
tp5261
g22
I00
S'~\xc1\x89\x9a9\xac!@'
p5262
tp5263
bsg28
g0
(g1
(I0
tp5264
g3
tp5265
Rp5266
(I1
(I1
tp5267
g22
I00
S'u\xea\xe3\xc0\x93\xef+@'
p5268
tp5269
bsg32
I0
sg33
I0
sbag5250
a(i__main__
PuffState
p5270
(dp5271
g16
g0
(g1
(I0
tp5272
g3
tp5273
Rp5274
(I1
(I1
tp5275
g22
I00
S'\xe8\xad\xcf\xd4\x12\xe9!@'
p5276
tp5277
bsg17
I0
sg18
g0
(g1
(I0
tp5278
g3
tp5279
Rp5280
(I1
(I1
tp5281
g22
I00
S'\xc2\xaedg\xa6\x01"@'
p5282
tp5283
bsg28
g0
(g1
(I0
tp5284
g3
tp5285
Rp5286
(I1
(I1
tp5287
g22
I00
S'|4\xd3b\x8d\xdf,@'
p5288
tp5289
bsg32
I0
sg33
I0
sbag5270
a(i__main__
PuffState
p5290
(dp5291
g16
g0
(g1
(I0
tp5292
g3
tp5293
Rp5294
(I1
(I1
tp5295
g22
I00
S'\xe7\x8c0\xc4\xcc\xe7"@'
p5296
tp5297
bsg17
I0
sg18
g0
(g1
(I0
tp5298
g3
tp5299
Rp5300
(I1
(I1
tp5301
g22
I00
S'\x06\x9c?4\x13W"@'
p5302
tp5303
bsg28
g0
(g1
(I0
tp5304
g3
tp5305
Rp5306
(I1
(I1
tp5307
g22
I00
S'\x83~\xc2\x04\x87\xcf-@'
p5308
tp5309
bsg32
I0
sg33
I0
sbag5290
a(i__main__
PuffState
p5310
(dp5311
g16
g0
(g1
(I0
tp5312
g3
tp5313
Rp5314
(I1
(I1
tp5315
g22
I00
S'\xe6k\x91\xb3\x86\xe6#@'
p5316
tp5317
bsg17
I0
sg18
g0
(g1
(I0
tp5318
g3
tp5319
Rp5320
(I1
(I1
tp5321
g22
I00
S'J\x89\x1a\x01\x80\xac"@'
p5322
tp5323
bsg28
g0
(g1
(I0
tp5324
g3
tp5325
Rp5326
(I1
(I1
tp5327
g22
I00
S'\x8a\xc8\xb1\xa6\x80\xbf.@'
p5328
tp5329
bsg32
I0
sg33
I0
sba(i__main__
PuffState
p5330
(dp5331
g16
I0
sg17
I0
sg18
g19
(g22
S'\x00\x00\x00\x00\x00\x00\x18@'
p5332
tp5333
Rp5334
sg28
g19
(g22
S'\x00\x00\x00\x00\x00\x00\x18@'
p5335
tp5336
Rp5337
sg32
I0
sg33
I0
sba(i__main__
PuffState
p5338
(dp5339
g16
g0
(g1
(I0
tp5340
g3
tp5341
Rp5342
(I1
(I1
tp5343
g22
I00
S'\xb5\xf3\xee\x8f\xff/\xe1?'
p5344
tp5345
bsg17
I0
sg18
g0
(g1
(I0
tp5346
g3
tp5347
Rp5348
(I1
(I1
tp5349
g22
I00
S'Z\xe7\x9c\x80\x8b\xcc\x19@'
p5350
tp5351
bsg28
g0
(g1
(I0
tp5352
g3
tp5353
Rp5354
(I1
(I1
tp5355
g22
I00
S'\xef\x8e\x8e\xae\xa9,\x19@'
p5356
tp5357
bsg32
I0
sg33
I0
sbag5338
a(i__main__
PuffState
p5358
(dp5359
g16
g0
(g1
(I0
tp5360
g3
tp5361
Rp5362
(I1
(I1
tp5363
g22
I00
S'\xb5\xf3\xee\x8f\xff/\xf1?'
p5364
tp5365
bsg17
I0
sg18
g0
(g1
(I0
tp5366
g3
tp5367
Rp5368
(I1
(I1
tp5369
g22
I00
S'\xb4\xce9\x01\x17\x99\x1b@'
p5370
tp5371
bsg28
g0
(g1
(I0
tp5372
g3
tp5373
Rp5374
(I1
(I1
tp5375
g22
I00
S'\xde\x1d\x1d]SY\x1a@'
p5376
tp5377
bsg32
I0
sg33
I0
sbag5358
a(i__main__
PuffState
p5378
(dp5379
g16
g0
(g1
(I0
tp5380
g3
tp5381
Rp5382
(I1
(I1
tp5383
g22
I00
S'\x90m\xe6W\xff\xc7\xf9?'
p5384
tp5385
bsg17
I0
sg18
g0
(g1
(I0
tp5386
g3
tp5387
Rp5388
(I1
(I1
tp5389
g22
I00
S'\x0e\xb6\xd6\x81\xa2e\x1d@'
p5390
tp5391
bsg28
g0
(g1
(I0
tp5392
g3
tp5393
Rp5394
(I1
(I1
tp5395
g22
I00
S'\xcd\xac\xab\x0b\xfd\x85\x1b@'
p5396
tp5397
bsg32
I0
sg33
I0
sbag5378
a(i__main__
PuffState
p5398
(dp5399
g16
g0
(g1
(I0
tp5400
g3
tp5401
Rp5402
(I1
(I1
tp5403
g22
I00
S'\xb5\xf3\xee\x8f\xff/\x01@'
p5404
tp5405
bsg17
I0
sg18
g0
(g1
(I0
tp5406
g3
tp5407
Rp5408
(I1
(I1
tp5409
g22
I00
S'h\x9ds\x02.2\x1f@'
p5410
tp5411
bsg28
g0
(g1
(I0
tp5412
g3
tp5413
Rp5414
(I1
(I1
tp5415
g22
I00
S'\xbc;:\xba\xa6\xb2\x1c@'
p5416
tp5417
bsg32
I0
sg33
I0
sbag5398
a(i__main__
PuffState
p5418
(dp5419
g16
g0
(g1
(I0
tp5420
g3
tp5421
Rp5422
(I1
(I1
tp5423
g22
I00
S'\xa2\xb0\xeas\xff{\x05@'
p5424
tp5425
bsg17
I0
sg18
g0
(g1
(I0
tp5426
g3
tp5427
Rp5428
(I1
(I1
tp5429
g22
I00
S'aB\x88\xc1\\\x7f @'
p5430
tp5431
bsg28
g0
(g1
(I0
tp5432
g3
tp5433
Rp5434
(I1
(I1
tp5435
g22
I00
S'\xab\xca\xc8hP\xdf\x1d@'
p5436
tp5437
bsg32
I0
sg33
I0
sbag5418
a(i__main__
PuffState
p5438
(dp5439
g16
g0
(g1
(I0
tp5440
g3
tp5441
Rp5442
(I1
(I1
tp5443
g22
I00
S'\x8fm\xe6W\xff\xc7\t@'
p5444
tp5445
bsg17
I0
sg18
g0
(g1
(I0
tp5446
g3
tp5447
Rp5448
(I1
(I1
tp5449
g22
I00
S'\x0e\xb6\xd6\x81\xa2e!@'
p5450
tp5451
bsg28
g0
(g1
(I0
tp5452
g3
tp5453
Rp5454
(I1
(I1
tp5455
g22
I00
S'\x9aYW\x17\xfa\x0b\x1f@'
p5456
tp5457
bsg32
I0
sg33
I0
sbag5438
a(i__main__
PuffState
p5458
(dp5459
g16
g0
(g1
(I0
tp5460
g3
tp5461
Rp5462
(I1
(I1
tp5463
g22
I00
S'|*\xe2;\xff\x13\x0e@'
p5464
tp5465
bsg17
I0
sg18
g0
(g1
(I0
tp5466
g3
tp5467
Rp5468
(I1
(I1
tp5469
g22
I00
S'\xbb)%B\xe8K"@'
p5470
tp5471
bsg28
g0
(g1
(I0
tp5472
g3
tp5473
Rp5474
(I1
(I1
tp5475
g22
I00
S'D\xf4\xf2\xe2Q\x1c @'
p5476
tp5477
bsg32
I0
sg33
I0
sbag5458
a(i__main__
PuffState
p5478
(dp5479
g16
g0
(g1
(I0
tp5480
g3
tp5481
Rp5482
(I1
(I1
tp5483
g22
I00
S'\xb5\xf3\xee\x8f\xff/\x11@'
p5484
tp5485
bsg17
I0
sg18
g0
(g1
(I0
tp5486
g3
tp5487
Rp5488
(I1
(I1
tp5489
g22
I00
S'h\x9ds\x02.2#@'
p5490
tp5491
bsg28
g0
(g1
(I0
tp5492
g3
tp5493
Rp5494
(I1
(I1
tp5495
g22
I00
S'\xbc;:\xba\xa6\xb2 @'
p5496
tp5497
bsg32
I0
sg33
I0
sbag5478
a(i__main__
PuffState
p5498
(dp5499
g16
g0
(g1
(I0
tp5500
g3
tp5501
Rp5502
(I1
(I1
tp5503
g22
I00
S',\xd2\xec\x81\xffU\x13@'
p5504
tp5505
bsg17
I0
sg18
g0
(g1
(I0
tp5506
g3
tp5507
Rp5508
(I1
(I1
tp5509
g22
I00
S'\x15\x11\xc2\xc2s\x18$@'
p5510
tp5511
bsg28
g0
(g1
(I0
tp5512
g3
tp5513
Rp5514
(I1
(I1
tp5515
g22
I00
S'4\x83\x81\x91\xfbH!@'
p5516
tp5517
bsg32
I0
sg33
I0
sbag5498
a(i__main__
PuffState
p5518
(dp5519
g16
g0
(g1
(I0
tp5520
g3
tp5521
Rp5522
(I1
(I1
tp5523
g22
I00
S'\xa3\xb0\xeas\xff{\x15@'
p5524
tp5525
bsg17
I0
sg18
g0
(g1
(I0
tp5526
g3
tp5527
Rp5528
(I1
(I1
tp5529
g22
I00
S'\xc2\x84\x10\x83\xb9\xfe$@'
p5530
tp5531
bsg28
g0
(g1
(I0
tp5532
g3
tp5533
Rp5534
(I1
(I1
tp5535
g22
I00
S'\xac\xca\xc8hP\xdf!@'
p5536
tp5537
bsg32
I0
sg33
I0
sbag5518
a(i__main__
PuffState
p5538
(dp5539
g16
g0
(g1
(I0
tp5540
g3
tp5541
Rp5542
(I1
(I1
tp5543
g22
I00
S'\x1a\x8f\xe8e\xff\xa1\x17@'
p5544
tp5545
bsg17
I0
sg18
g0
(g1
(I0
tp5546
g3
tp5547
Rp5548
(I1
(I1
tp5549
g22
I00
S'o\xf8^C\xff\xe4%@'
p5550
tp5551
bsg28
g0
(g1
(I0
tp5552
g3
tp5553
Rp5554
(I1
(I1
tp5555
g22
I00
S'$\x12\x10@\xa5u"@'
p5556
tp5557
bsg32
I0
sg33
I0
sbag5538
a(i__main__
PuffState
p5558
(dp5559
g16
g0
(g1
(I0
tp5560
g3
tp5561
Rp5562
(I1
(I1
tp5563
g22
I00
S'\x91m\xe6W\xff\xc7\x19@'
p5564
tp5565
bsg17
I0
sg18
g0
(g1
(I0
tp5566
g3
tp5567
Rp5568
(I1
(I1
tp5569
g22
I00
S'\x1cl\xad\x03E\xcb&@'
p5570
tp5571
bsg28
g0
(g1
(I0
tp5572
g3
tp5573
Rp5574
(I1
(I1
tp5575
g22
I00
S'\x9cYW\x17\xfa\x0b#@'
p5576
tp5577
bsg32
I0
sg33
I0
sbag5558
a(i__main__
PuffState
p5578
(dp5579
g16
g0
(g1
(I0
tp5580
g3
tp5581
Rp5582
(I1
(I1
tp5583
g22
I00
S'\x08L\xe4I\xff\xed\x1b@'
p5584
tp5585
bsg17
I0
sg18
g0
(g1
(I0
tp5586
g3
tp5587
Rp5588
(I1
(I1
tp5589
g22
I00
S"\xc9\xdf\xfb\xc3\x8a\xb1'@"
p5590
tp5591
bsg28
g0
(g1
(I0
tp5592
g3
tp5593
Rp5594
(I1
(I1
tp5595
g22
I00
S'\x14\xa1\x9e\xeeN\xa2#@'
p5596
tp5597
bsg32
I0
sg33
I0
sbag5578
a(i__main__
PuffState
p5598
(dp5599
g16
g0
(g1
(I0
tp5600
g3
tp5601
Rp5602
(I1
(I1
tp5603
g22
I00
S'\x7f*\xe2;\xff\x13\x1e@'
p5604
tp5605
bsg17
I0
sg18
g0
(g1
(I0
tp5606
g3
tp5607
Rp5608
(I1
(I1
tp5609
g22
I00
S'vSJ\x84\xd0\x97(@'
p5610
tp5611
bsg28
g0
(g1
(I0
tp5612
g3
tp5613
Rp5614
(I1
(I1
tp5615
g22
I00
S'\x8c\xe8\xe5\xc5\xa38$@'
p5616
tp5617
bsg32
I0
sg33
I0
sbag5598
a(i__main__
PuffState
p5618
(dp5619
g16
g0
(g1
(I0
tp5620
g3
tp5621
Rp5622
(I1
(I1
tp5623
g22
I00
S'{\x04\xf0\x96\xff\x1c @'
p5624
tp5625
bsg17
I0
sg18
g0
(g1
(I0
tp5626
g3
tp5627
Rp5628
(I1
(I1
tp5629
g22
I00
S'#\xc7\x98D\x16~)@'
p5630
tp5631
bsg28
g0
(g1
(I0
tp5632
g3
tp5633
Rp5634
(I1
(I1
tp5635
g22
I00
S'\x040-\x9d\xf8\xce$@'
p5636
tp5637
bsg32
I0
sg33
I0
sbag5618
a(i__main__
PuffState
p5638
(dp5639
g16
g0
(g1
(I0
tp5640
g3
tp5641
Rp5642
(I1
(I1
tp5643
g22
I00
S'\xb6\xf3\xee\x8f\xff/!@'
p5644
tp5645
bsg17
I0
sg18
g0
(g1
(I0
tp5646
g3
tp5647
Rp5648
(I1
(I1
tp5649
g22
I00
S'\xd0:\xe7\x04\\d*@'
p5650
tp5651
bsg28
g0
(g1
(I0
tp5652
g3
tp5653
Rp5654
(I1
(I1
tp5655
g22
I00
S'|wttMe%@'
p5656
tp5657
bsg32
I0
sg33
I0
sbag5638
a(i__main__
PuffState
p5658
(dp5659
g16
g0
(g1
(I0
tp5660
g3
tp5661
Rp5662
(I1
(I1
tp5663
g22
I00
S'\xf1\xe2\xed\x88\xffB"@'
p5664
tp5665
bsg17
I0
sg18
g0
(g1
(I0
tp5666
g3
tp5667
Rp5668
(I1
(I1
tp5669
g22
I00
S'}\xae5\xc5\xa1J+@'
p5670
tp5671
bsg28
g0
(g1
(I0
tp5672
g3
tp5673
Rp5674
(I1
(I1
tp5675
g22
I00
S'\xf4\xbe\xbbK\xa2\xfb%@'
p5676
tp5677
bsg32
I0
sg33
I0
sbag5658
a(i__main__
PuffState
p5678
(dp5679
g16
g0
(g1
(I0
tp5680
g3
tp5681
Rp5682
(I1
(I1
tp5683
g22
I00
S',\xd2\xec\x81\xffU#@'
p5684
tp5685
bsg17
I0
sg18
g0
(g1
(I0
tp5686
g3
tp5687
Rp5688
(I1
(I1
tp5689
g22
I00
S'*"\x84\x85\xe70,@'
p5690
tp5691
bsg28
g0
(g1
(I0
tp5692
g3
tp5693
Rp5694
(I1
(I1
tp5695
g22
I00
S'l\x06\x03#\xf7\x91&@'
p5696
tp5697
bsg32
I0
sg33
I0
sbag5678
a(i__main__
PuffState
p5698
(dp5699
g16
g0
(g1
(I0
tp5700
g3
tp5701
Rp5702
(I1
(I1
tp5703
g22
I00
S'g\xc1\xebz\xffh$@'
p5704
tp5705
bsg17
I0
sg18
g0
(g1
(I0
tp5706
g3
tp5707
Rp5708
(I1
(I1
tp5709
g22
I00
S'\xd7\x95\xd2E-\x17-@'
p5710
tp5711
bsg28
g0
(g1
(I0
tp5712
g3
tp5713
Rp5714
(I1
(I1
tp5715
g22
I00
S"\xe4MJ\xfaK('@"
p5716
tp5717
bsg32
I0
sg33
I0
sbag5698
a(i__main__
PuffState
p5718
(dp5719
g16
g0
(g1
(I0
tp5720
g3
tp5721
Rp5722
(I1
(I1
tp5723
g22
I00
S'\xa2\xb0\xeas\xff{%@'
p5724
tp5725
bsg17
I0
sg18
g0
(g1
(I0
tp5726
g3
tp5727
Rp5728
(I1
(I1
tp5729
g22
I00
S'\x84\t!\x06s\xfd-@'
p5730
tp5731
bsg28
g0
(g1
(I0
tp5732
g3
tp5733
Rp5734
(I1
(I1
tp5735
g22
I00
S"\\\x95\x91\xd1\xa0\xbe'@"
p5736
tp5737
bsg32
I0
sg33
I0
sba(i__main__
PuffState
p5738
(dp5739
g16
I0
sg17
I0
sg18
g19
(g22
S'\x00\x00\x00\x00\x00\x00\x18@'
p5740
tp5741
Rp5742
sg28
g19
(g22
S'\x00\x00\x00\x00\x00\x00\x18@'
p5743
tp5744
Rp5745
sg32
I0
sg33
I0
sba(i__main__
PuffState
p5746
(dp5747
g16
g0
(g1
(I0
tp5748
g3
tp5749
Rp5750
(I1
(I1
tp5751
g22
I00
S'\x84\x16\xc7\x1d\x03N\xe0?'
p5752
tp5753
bsg17
I0
sg18
g0
(g1
(I0
tp5754
g3
tp5755
Rp5756
(I1
(I1
tp5757
g22
I00
S'A\x9cl\x8d\x15u\x19@'
p5758
tp5759
bsg28
g0
(g1
(I0
tp5760
g3
tp5761
Rp5762
(I1
(I1
tp5763
g22
I00
S'\x0c\xac_\x96\xbcl\x19@'
p5764
tp5765
bsg32
I0
sg33
I0
sbag5746
a(i__main__
PuffState
p5766
(dp5767
g16
g0
(g1
(I0
tp5768
g3
tp5769
Rp5770
(I1
(I1
tp5771
g22
I00
S'\x84\x16\xc7\x1d\x03N\xf0?'
p5772
tp5773
bsg17
I0
sg18
g0
(g1
(I0
tp5774
g3
tp5775
Rp5776
(I1
(I1
tp5777
g22
I00
S'\x828\xd9\x1a+\xea\x1a@'
p5778
tp5779
bsg28
g0
(g1
(I0
tp5780
g3
tp5781
Rp5782
(I1
(I1
tp5783
g22
I00
S'\x18X\xbf,y\xd9\x1a@'
p5784
tp5785
bsg32
I0
sg33
I0
sbag5766
a(i__main__
PuffState
p5786
(dp5787
g16
g0
(g1
(I0
tp5788
g3
tp5789
Rp5790
(I1
(I1
tp5791
g22
I00
S'\xc6\xa1\xaa\xac\x04u\xf8?'
p5792
tp5793
bsg17
I0
sg18
g0
(g1
(I0
tp5794
g3
tp5795
Rp5796
(I1
(I1
tp5797
g22
I00
S'\xc3\xd4E\xa8@_\x1c@'
p5798
tp5799
bsg28
g0
(g1
(I0
tp5800
g3
tp5801
Rp5802
(I1
(I1
tp5803
g22
I00
S'$\x04\x1f\xc35F\x1c@'
p5804
tp5805
bsg32
I0
sg33
I0
sbag5786
a(i__main__
PuffState
p5806
(dp5807
g16
g0
(g1
(I0
tp5808
g3
tp5809
Rp5810
(I1
(I1
tp5811
g22
I00
S'\x84\x16\xc7\x1d\x03N\x00@'
p5812
tp5813
bsg17
I0
sg18
g0
(g1
(I0
tp5814
g3
tp5815
Rp5816
(I1
(I1
tp5817
g22
I00
S'\x04q\xb25V\xd4\x1d@'
p5818
tp5819
bsg28
g0
(g1
(I0
tp5820
g3
tp5821
Rp5822
(I1
(I1
tp5823
g22
I00
S'0\xb0~Y\xf2\xb2\x1d@'
p5824
tp5825
bsg32
I0
sg33
I0
sbag5806
a(i__main__
PuffState
p5826
(dp5827
g16
g0
(g1
(I0
tp5828
g3
tp5829
Rp5830
(I1
(I1
tp5831
g22
I00
S'%\xdc8\xe5\x83a\x04@'
p5832
tp5833
bsg17
I0
sg18
g0
(g1
(I0
tp5834
g3
tp5835
Rp5836
(I1
(I1
tp5837
g22
I00
S'E\r\x1f\xc3kI\x1f@'
p5838
tp5839
bsg28
g0
(g1
(I0
tp5840
g3
tp5841
Rp5842
(I1
(I1
tp5843
g22
I00
S'<\\\xde\xef\xae\x1f\x1f@'
p5844
tp5845
bsg32
I0
sg33
I0
sbag5826
a(i__main__
PuffState
p5846
(dp5847
g16
g0
(g1
(I0
tp5848
g3
tp5849
Rp5850
(I1
(I1
tp5851
g22
I00
S'\xc6\xa1\xaa\xac\x04u\x08@'
p5852
tp5853
bsg17
I0
sg18
g0
(g1
(I0
tp5854
g3
tp5855
Rp5856
(I1
(I1
tp5857
g22
I00
S'\xc3\xd4E\xa8@_ @'
p5858
tp5859
bsg28
g0
(g1
(I0
tp5860
g3
tp5861
Rp5862
(I1
(I1
tp5863
g22
I00
S'$\x04\x1f\xc35F @'
p5864
tp5865
bsg32
I0
sg33
I0
sbag5846
a(i__main__
PuffState
p5866
(dp5867
g16
g0
(g1
(I0
tp5868
g3
tp5869
Rp5870
(I1
(I1
tp5871
g22
I00
S'gg\x1ct\x85\x88\x0c@'
p5872
tp5873
bsg17
I0
sg18
g0
(g1
(I0
tp5874
g3
tp5875
Rp5876
(I1
(I1
tp5877
g22
I00
S'\xe3"\xfcn\xcb\x19!@'
p5878
tp5879
bsg28
g0
(g1
(I0
tp5880
g3
tp5881
Rp5882
(I1
(I1
tp5883
g22
I00
S'*\xdaN\x0e\x94\xfc @'
p5884
tp5885
bsg32
I0
sg33
I0
sbag5866
a(i__main__
PuffState
p5886
(dp5887
g16
g0
(g1
(I0
tp5888
g3
tp5889
Rp5890
(I1
(I1
tp5891
g22
I00
S'\x84\x16\xc7\x1d\x03N\x10@'
p5892
tp5893
bsg17
I0
sg18
g0
(g1
(I0
tp5894
g3
tp5895
Rp5896
(I1
(I1
tp5897
g22
I00
S'\x03q\xb25V\xd4!@'
p5898
tp5899
bsg28
g0
(g1
(I0
tp5900
g3
tp5901
Rp5902
(I1
(I1
tp5903
g22
I00
S'0\xb0~Y\xf2\xb2!@'
p5904
tp5905
bsg32
I0
sg33
I0
sbag5886
a(i__main__
PuffState
p5906
(dp5907
g16
g0
(g1
(I0
tp5908
g3
tp5909
Rp5910
(I1
(I1
tp5911
g22
I00
S'T\xf9\x7f\x81\xc3W\x12@'
p5912
tp5913
bsg17
I0
sg18
g0
(g1
(I0
tp5914
g3
tp5915
Rp5916
(I1
(I1
tp5917
g22
I00
S'#\xbfh\xfc\xe0\x8e"@'
p5918
tp5919
bsg28
g0
(g1
(I0
tp5920
g3
tp5921
Rp5922
(I1
(I1
tp5923
g22
I00
S'6\x86\xae\xa4Pi"@'
p5924
tp5925
bsg32
I0
sg33
I0
sbag5906
a(i__main__
PuffState
p5926
(dp5927
g16
g0
(g1
(I0
tp5928
g3
tp5929
Rp5930
(I1
(I1
tp5931
g22
I00
S'$\xdc8\xe5\x83a\x14@'
p5932
tp5933
bsg17
I0
sg18
g0
(g1
(I0
tp5934
g3
tp5935
Rp5936
(I1
(I1
tp5937
g22
I00
S'C\r\x1f\xc3kI#@'
p5938
tp5939
bsg28
g0
(g1
(I0
tp5940
g3
tp5941
Rp5942
(I1
(I1
tp5943
g22
I00
S'<\\\xde\xef\xae\x1f#@'
p5944
tp5945
bsg32
I0
sg33
I0
sbag5926
a(i__main__
PuffState
p5946
(dp5947
g16
g0
(g1
(I0
tp5948
g3
tp5949
Rp5950
(I1
(I1
tp5951
g22
I00
S'\xf4\xbe\xf1HDk\x16@'
p5952
tp5953
bsg17
I0
sg18
g0
(g1
(I0
tp5954
g3
tp5955
Rp5956
(I1
(I1
tp5957
g22
I00
S'c[\xd5\x89\xf6\x03$@'
p5958
tp5959
bsg28
g0
(g1
(I0
tp5960
g3
tp5961
Rp5962
(I1
(I1
tp5963
g22
I00
S'B2\x0e;\r\xd6#@'
p5964
tp5965
bsg32
I0
sg33
I0
sbag5946
a(i__main__
PuffState
p5966
(dp5967
g16
g0
(g1
(I0
tp5968
g3
tp5969
Rp5970
(I1
(I1
tp5971
g22
I00
S'\xc4\xa1\xaa\xac\x04u\x18@'
p5972
tp5973
bsg17
I0
sg18
g0
(g1
(I0
tp5974
g3
tp5975
Rp5976
(I1
(I1
tp5977
g22
I00
S'\x83\xa9\x8bP\x81\xbe$@'
p5978
tp5979
bsg28
g0
(g1
(I0
tp5980
g3
tp5981
Rp5982
(I1
(I1
tp5983
g22
I00
S'H\x08>\x86k\x8c$@'
p5984
tp5985
bsg32
I0
sg33
I0
sbag5966
a(i__main__
PuffState
p5986
(dp5987
g16
g0
(g1
(I0
tp5988
g3
tp5989
Rp5990
(I1
(I1
tp5991
g22
I00
S'\x94\x84c\x10\xc5~\x1a@'
p5992
tp5993
bsg17
I0
sg18
g0
(g1
(I0
tp5994
g3
tp5995
Rp5996
(I1
(I1
tp5997
g22
I00
S'\xa3\xf7A\x17\x0cy%@'
p5998
tp5999
bsg28
g0
(g1
(I0
tp6000
g3
tp6001
Rp6002
(I1
(I1
tp6003
g22
I00
S'N\xdem\xd1\xc9B%@'
p6004
tp6005
bsg32
I0
sg33
I0
sbag5986
a(i__main__
PuffState
p6006
(dp6007
g16
g0
(g1
(I0
tp6008
g3
tp6009
Rp6010
(I1
(I1
tp6011
g22
I00
S'dg\x1ct\x85\x88\x1c@'
p6012
tp6013
bsg17
I0
sg18
g0
(g1
(I0
tp6014
g3
tp6015
Rp6016
(I1
(I1
tp6017
g22
I00
S'\xc3E\xf8\xdd\x963&@'
p6018
tp6019
bsg28
g0
(g1
(I0
tp6020
g3
tp6021
Rp6022
(I1
(I1
tp6023
g22
I00
S'T\xb4\x9d\x1c(\xf9%@'
p6024
tp6025
bsg32
I0
sg33
I0
sbag6006
a(i__main__
PuffState
p6026
(dp6027
g16
g0
(g1
(I0
tp6028
g3
tp6029
Rp6030
(I1
(I1
tp6031
g22
I00
S'4J\xd5\xd7E\x92\x1e@'
p6032
tp6033
bsg17
I0
sg18
g0
(g1
(I0
tp6034
g3
tp6035
Rp6036
(I1
(I1
tp6037
g22
I00
S'\xe3\x93\xae\xa4!\xee&@'
p6038
tp6039
bsg28
g0
(g1
(I0
tp6040
g3
tp6041
Rp6042
(I1
(I1
tp6043
g22
I00
S'Z\x8a\xcdg\x86\xaf&@'
p6044
tp6045
bsg32
I0
sg33
I0
sbag6026
a(i__main__
PuffState
p6046
(dp6047
g16
g0
(g1
(I0
tp6048
g3
tp6049
Rp6050
(I1
(I1
tp6051
g22
I00
S'\x82\x16\xc7\x1d\x03N @'
p6052
tp6053
bsg17
I0
sg18
g0
(g1
(I0
tp6054
g3
tp6055
Rp6056
(I1
(I1
tp6057
g22
I00
S"\x03\xe2dk\xac\xa8'@"
p6058
tp6059
bsg28
g0
(g1
(I0
tp6060
g3
tp6061
Rp6062
(I1
(I1
tp6063
g22
I00
S"``\xfd\xb2\xe4e'@"
p6064
tp6065
bsg32
I0
sg33
I0
sbag6046
a(i__main__
PuffState
p6066
(dp6067
g16
g0
(g1
(I0
tp6068
g3
tp6069
Rp6070
(I1
(I1
tp6071
g22
I00
S'\xea\x87\xa3O\xe3R!@'
p6072
tp6073
bsg17
I0
sg18
g0
(g1
(I0
tp6074
g3
tp6075
Rp6076
(I1
(I1
tp6077
g22
I00
S'#0\x1b27c(@'
p6078
tp6079
bsg28
g0
(g1
(I0
tp6080
g3
tp6081
Rp6082
(I1
(I1
tp6083
g22
I00
S'f6-\xfeB\x1c(@'
p6084
tp6085
bsg32
I0
sg33
I0
sbag6066
a(i__main__
PuffState
p6086
(dp6087
g16
g0
(g1
(I0
tp6088
g3
tp6089
Rp6090
(I1
(I1
tp6091
g22
I00
S'R\xf9\x7f\x81\xc3W"@'
p6092
tp6093
bsg17
I0
sg18
g0
(g1
(I0
tp6094
g3
tp6095
Rp6096
(I1
(I1
tp6097
g22
I00
S'C~\xd1\xf8\xc1\x1d)@'
p6098
tp6099
bsg28
g0
(g1
(I0
tp6100
g3
tp6101
Rp6102
(I1
(I1
tp6103
g22
I00
S'l\x0c]I\xa1\xd2(@'
p6104
tp6105
bsg32
I0
sg33
I0
sbag6086
a(i__main__
PuffState
p6106
(dp6107
g16
g0
(g1
(I0
tp6108
g3
tp6109
Rp6110
(I1
(I1
tp6111
g22
I00
S'\xbaj\\\xb3\xa3\\#@'
p6112
tp6113
bsg17
I0
sg18
g0
(g1
(I0
tp6114
g3
tp6115
Rp6116
(I1
(I1
tp6117
g22
I00
S'c\xcc\x87\xbfL\xd8)@'
p6118
tp6119
bsg28
g0
(g1
(I0
tp6120
g3
tp6121
Rp6122
(I1
(I1
tp6123
g22
I00
S'r\xe2\x8c\x94\xff\x88)@'
p6124
tp6125
bsg32
I0
sg33
I0
sbag6106
a(i__main__
PuffState
p6126
(dp6127
g16
g0
(g1
(I0
tp6128
g3
tp6129
Rp6130
(I1
(I1
tp6131
g22
I00
S'"\xdc8\xe5\x83a$@'
p6132
tp6133
bsg17
I0
sg18
g0
(g1
(I0
tp6134
g3
tp6135
Rp6136
(I1
(I1
tp6137
g22
I00
S'\x83\x1a>\x86\xd7\x92*@'
p6138
tp6139
bsg28
g0
(g1
(I0
tp6140
g3
tp6141
Rp6142
(I1
(I1
tp6143
g22
I00
S'x\xb8\xbc\xdf]?*@'
p6144
tp6145
bsg32
I0
sg33
I0
sbatp6146
b.